(dp0
S'results'
p1
(lp2
(dp3
S'a'
p4
I7
sS'percentageOfOccurrences'
p5
F5.8
sS'b'
p6
I7
sS'valid'
p7
I01
sS'numOfOccurrences'
p8
I58
sa(dp9
g4
I5
sg5
F17.4
sg6
I5
sg7
I00
sg8
I174
sa(dp10
g4
I5
sg5
F0.4
sg6
I7
sg7
I00
sg8
I4
sa(dp11
g4
I7
sg5
F1.8
sg6
I5
sg7
I00
sg8
I18
sa(dp12
g4
I1
sg5
F38.1
sg6
I1
sg7
I00
sg8
I381
sa(dp13
g4
I4
sg5
F9.8
sg6
I7
sg7
I00
sg8
I98
sa(dp14
g4
I7
sg5
F1.0
sg6
I3
sg7
I00
sg8
I10
sa(dp15
g4
I6
sg5
F2.3
sg6
I7
sg7
I00
sg8
I23
sa(dp16
g4
I3
sg5
F0.4
sg6
I3
sg7
I00
sg8
I4
sa(dp17
g4
I5
sg5
F18.1
sg6
I1
sg7
I00
sg8
I181
sa(dp18
g4
I0
sg5
F0.3
sg6
I7
sg7
I00
sg8
I3
sa(dp19
g4
I7
sg5
F1.6
sg6
I4
sg7
I00
sg8
I16
sa(dp20
g4
I4
sg5
F1.4
sg6
I5
sg7
I00
sg8
I14
sa(dp21
g4
I4
sg5
F0.4
sg6
I6
sg7
I00
sg8
I4
sa(dp22
g4
I6
sg5
F0.1
sg6
I4
sg7
I00
sg8
I1
sa(dp23
g4
I1
sg5
F0.7
sg6
I3
sg7
I00
sg8
I7
sa(dp24
g4
I0
sg5
F0.3
sg6
I3
sg7
I00
sg8
I3
sa(dp25
g4
I5
sg5
F0.1
sg6
I3
sg7
I00
sg8
I1
sasS'numberOfReads'
p26
I1000
s.