(dp0
S'results'
p1
(lp2
(dp3
S'a'
p4
I7
sS'percentageOfOccurrences'
p5
F0.501002004008016
sS'b'
p6
I7
sS'valid'
p7
I01
sS'numOfOccurrences'
p8
I5
sa(dp9
g4
I7
sg5
F1.002004008016032
sg6
I5
sg7
I00
sg8
I10
sa(dp10
g4
I5
sg5
F3.406813627254509
sg6
I5
sg7
I00
sg8
I34
sa(dp11
g4
I5
sg5
F0.20040080160320642
sg6
I7
sg7
I00
sg8
I2
sa(dp12
g4
I1
sg5
F74.44889779559118
sg6
I1
sg7
I00
sg8
I743
sa(dp13
g4
I6
sg5
F0.20040080160320642
sg6
I7
sg7
I00
sg8
I2
sa(dp14
g4
I4
sg5
F6.813627254509018
sg6
I7
sg7
I00
sg8
I68
sa(dp15
g4
I3
sg5
F0.20040080160320642
sg6
I3
sg7
I00
sg8
I2
sa(dp16
g4
I3
sg5
F0.40080160320641284
sg6
I7
sg7
I00
sg8
I4
sa(dp17
g4
I7
sg5
F1.402805611222445
sg6
I3
sg7
I00
sg8
I14
sa(dp18
g4
I5
sg5
F3.1062124248496996
sg6
I1
sg7
I00
sg8
I31
sa(dp19
g4
I5
sg5
F0.20040080160320642
sg6
I4
sg7
I00
sg8
I2
sa(dp20
g4
I1
sg5
F1.6032064128256514
sg6
I5
sg7
I00
sg8
I16
sa(dp21
g4
I3
sg5
F2.50501002004008
sg6
I1
sg7
I00
sg8
I25
sa(dp22
g4
I6
sg5
F0.20040080160320642
sg6
I4
sg7
I00
sg8
I2
sa(dp23
g4
I3
sg5
F0.501002004008016
sg6
I5
sg7
I00
sg8
I5
sa(dp24
g4
I7
sg5
F0.40080160320641284
sg6
I4
sg7
I00
sg8
I4
sa(dp25
g4
I3
sg5
F1.402805611222445
sg6
I0
sg7
I00
sg8
I14
sa(dp26
g4
I5
sg5
F0.501002004008016
sg6
I0
sg7
I00
sg8
I5
sa(dp27
g4
I1
sg5
F0.40080160320641284
sg6
I7
sg7
I00
sg8
I4
sa(dp28
g4
I6
sg5
F0.10020040080160321
sg6
I6
sg7
I00
sg8
I1
sa(dp29
g4
I4
sg5
F0.10020040080160321
sg6
I5
sg7
I00
sg8
I1
sa(dp30
g4
I7
sg5
F0.10020040080160321
sg6
I0
sg7
I00
sg8
I1
sa(dp31
g4
I2
sg5
F0.10020040080160321
sg6
I5
sg7
I00
sg8
I1
sa(dp32
g4
I2
sg5
F0.10020040080160321
sg6
I4
sg7
I00
sg8
I1
sa(dp33
g4
I3
sg5
F0.10020040080160321
sg6
I4
sg7
I00
sg8
I1
sasS'numberOfReads'
p34
I998
s.