(dp0
S'results'
p1
(lp2
(dp3
S'a'
p4
I7
sS'percentageOfOccurrences'
p5
F1.7017017017017018
sS'b'
p6
I7
sS'valid'
p7
I01
sS'numOfOccurrences'
p8
I17
sa(dp9
g4
I5
sg5
F0.1001001001001001
sg6
I7
sg7
I00
sg8
I1
sa(dp10
g4
I5
sg5
F2.5025025025025025
sg6
I5
sg7
I00
sg8
I25
sa(dp11
g4
I7
sg5
F1.901901901901902
sg6
I5
sg7
I00
sg8
I19
sa(dp12
g4
I1
sg5
F70.87087087087087
sg6
I1
sg7
I00
sg8
I708
sa(dp13
g4
I3
sg5
F2.002002002002002
sg6
I5
sg7
I00
sg8
I20
sa(dp14
g4
I7
sg5
F6.406406406406407
sg6
I3
sg7
I00
sg8
I64
sa(dp15
g4
I3
sg5
F3.003003003003003
sg6
I3
sg7
I00
sg8
I30
sa(dp16
g4
I3
sg5
F1.8018018018018018
sg6
I7
sg7
I00
sg8
I18
sa(dp17
g4
I6
sg5
F0.8008008008008008
sg6
I7
sg7
I00
sg8
I8
sa(dp18
g4
I4
sg5
F0.6006006006006006
sg6
I7
sg7
I00
sg8
I6
sa(dp19
g4
I5
sg5
F1.7017017017017018
sg6
I1
sg7
I00
sg8
I17
sa(dp20
g4
I0
sg5
F0.6006006006006006
sg6
I3
sg7
I00
sg8
I6
sa(dp21
g4
I0
sg5
F1.4014014014014013
sg6
I7
sg7
I00
sg8
I14
sa(dp22
g4
I1
sg5
F3.6036036036036037
sg6
I3
sg7
I00
sg8
I36
sa(dp23
g4
I6
sg5
F0.1001001001001001
sg6
I6
sg7
I00
sg8
I1
sa(dp24
g4
I6
sg5
F0.1001001001001001
sg6
I5
sg7
I00
sg8
I1
sa(dp25
g4
I7
sg5
F0.2002002002002002
sg6
I0
sg7
I00
sg8
I2
sa(dp26
g4
I7
sg5
F0.4004004004004004
sg6
I4
sg7
I00
sg8
I4
sa(dp27
g4
I6
sg5
F0.1001001001001001
sg6
I4
sg7
I00
sg8
I1
sa(dp28
g4
I2
sg5
F0.1001001001001001
sg6
I7
sg7
I00
sg8
I1
sasS'numberOfReads'
p29
I999
s.