(dp0
S'results'
p1
(lp2
(dp3
S'a'
p4
I7
sS'percentageOfOccurrences'
p5
F4.208416833667335
sS'b'
p6
I7
sS'valid'
p7
I01
sS'numOfOccurrences'
p8
I42
sa(dp9
g4
I5
sg5
F10.521042084168336
sg6
I5
sg7
I00
sg8
I105
sa(dp10
g4
I7
sg5
F1.9038076152304608
sg6
I5
sg7
I00
sg8
I19
sa(dp11
g4
I5
sg5
F0.30060120240480964
sg6
I7
sg7
I00
sg8
I3
sa(dp12
g4
I1
sg5
F43.587174348697395
sg6
I1
sg7
I00
sg8
I435
sa(dp13
g4
I7
sg5
F9.819639278557114
sg6
I3
sg7
I00
sg8
I98
sa(dp14
g4
I3
sg5
F1.8036072144288577
sg6
I3
sg7
I00
sg8
I18
sa(dp15
g4
I6
sg5
F1.8036072144288577
sg6
I7
sg7
I00
sg8
I18
sa(dp16
g4
I4
sg5
F3.6072144288577155
sg6
I7
sg7
I00
sg8
I36
sa(dp17
g4
I5
sg5
F0.8016032064128257
sg6
I3
sg7
I00
sg8
I8
sa(dp18
g4
I7
sg5
F1.2024048096192386
sg6
I4
sg7
I00
sg8
I12
sa(dp19
g4
I5
sg5
F18.537074148296593
sg6
I1
sg7
I00
sg8
I185
sa(dp20
g4
I4
sg5
F1.1022044088176353
sg6
I5
sg7
I00
sg8
I11
sa(dp21
g4
I5
sg5
F0.30060120240480964
sg6
I4
sg7
I00
sg8
I3
sa(dp22
g4
I1
sg5
F0.30060120240480964
sg6
I5
sg7
I00
sg8
I3
sa(dp23
g4
I0
sg5
F0.10020040080160321
sg6
I5
sg7
I00
sg8
I1
sa(dp24
g4
I0
sg5
F0.10020040080160321
sg6
I7
sg7
I00
sg8
I1
sasS'numberOfReads'
p25
I998
s.