(dp0
S'results'
p1
(lp2
(dp3
S'a'
p4
I7
sS'percentageOfOccurrences'
p5
F10.0
sS'b'
p6
I7
sS'valid'
p7
I01
sS'numOfOccurrences'
p8
I100
sa(dp9
g4
I5
sg5
F11.3
sg6
I5
sg7
I00
sg8
I113
sa(dp10
g4
I7
sg5
F4.9
sg6
I5
sg7
I00
sg8
I49
sa(dp11
g4
I5
sg5
F0.6
sg6
I7
sg7
I00
sg8
I6
sa(dp12
g4
I1
sg5
F40.1
sg6
I1
sg7
I00
sg8
I401
sa(dp13
g4
I3
sg5
F9.9
sg6
I3
sg7
I00
sg8
I99
sa(dp14
g4
I7
sg5
F5.2
sg6
I3
sg7
I00
sg8
I52
sa(dp15
g4
I5
sg5
F0.5
sg6
I3
sg7
I00
sg8
I5
sa(dp16
g4
I3
sg5
F0.1
sg6
I7
sg7
I00
sg8
I1
sa(dp17
g4
I7
sg5
F10.3
sg6
I1
sg7
I00
sg8
I103
sa(dp18
g4
I5
sg5
F6.6
sg6
I1
sg7
I00
sg8
I66
sa(dp19
g4
I0
sg5
F0.2
sg6
I7
sg7
I00
sg8
I2
sa(dp20
g4
I1
sg5
F0.3
sg6
I7
sg7
I00
sg8
I3
sasS'numberOfReads'
p21
I1000
s.