(dp0
S'results'
p1
(lp2
(dp3
S'a'
p4
I7
sS'percentageOfOccurrences'
p5
F0.802407221664995
sS'b'
p6
I7
sS'valid'
p7
I01
sS'numOfOccurrences'
p8
I8
sa(dp9
g4
I7
sg5
F2.407221664994985
sg6
I5
sg7
I00
sg8
I24
sa(dp10
g4
I5
sg5
F2.206619859578736
sg6
I5
sg7
I00
sg8
I22
sa(dp11
g4
I5
sg5
F0.10030090270812438
sg6
I7
sg7
I00
sg8
I1
sa(dp12
g4
I1
sg5
F80.14042126379137
sg6
I1
sg7
I00
sg8
I799
sa(dp13
g4
I3
sg5
F1.9057171514543632
sg6
I5
sg7
I00
sg8
I19
sa(dp14
g4
I7
sg5
F3.009027081243731
sg6
I3
sg7
I00
sg8
I30
sa(dp15
g4
I6
sg5
F0.7021063189568706
sg6
I7
sg7
I00
sg8
I7
sa(dp16
g4
I4
sg5
F0.7021063189568706
sg6
I7
sg7
I00
sg8
I7
sa(dp17
g4
I3
sg5
F1.4042126379137412
sg6
I3
sg7
I00
sg8
I14
sa(dp18
g4
I3
sg5
F1.0030090270812437
sg6
I7
sg7
I00
sg8
I10
sa(dp19
g4
I7
sg5
F0.5015045135406219
sg6
I0
sg7
I00
sg8
I5
sa(dp20
g4
I7
sg5
F0.20060180541624875
sg6
I4
sg7
I00
sg8
I2
sa(dp21
g4
I0
sg5
F0.5015045135406219
sg6
I3
sg7
I00
sg8
I5
sa(dp22
g4
I4
sg5
F0.10030090270812438
sg6
I5
sg7
I00
sg8
I1
sa(dp23
g4
I1
sg5
F2.206619859578736
sg6
I3
sg7
I00
sg8
I22
sa(dp24
g4
I5
sg5
F0.9027081243731193
sg6
I1
sg7
I00
sg8
I9
sa(dp25
g4
I0
sg5
F0.6018054162487463
sg6
I7
sg7
I00
sg8
I6
sa(dp26
g4
I5
sg5
F0.10030090270812438
sg6
I0
sg7
I00
sg8
I1
sa(dp27
g4
I2
sg5
F0.5015045135406219
sg6
I7
sg7
I00
sg8
I5
sasS'numberOfReads'
p28
I997
s.