(dp0
S'results'
p1
(lp2
(dp3
S'a'
p4
I7
sS'percentageOfOccurrences'
p5
F9.00900900900901
sS'b'
p6
I7
sS'valid'
p7
I01
sS'numOfOccurrences'
p8
I90
sa(dp9
g4
I5
sg5
F4.104104104104104
sg6
I7
sg7
I00
sg8
I41
sa(dp10
g4
I5
sg5
F20.32032032032032
sg6
I5
sg7
I00
sg8
I203
sa(dp11
g4
I7
sg5
F3.3033033033033035
sg6
I5
sg7
I00
sg8
I33
sa(dp12
g4
I1
sg5
F47.247247247247245
sg6
I1
sg7
I00
sg8
I472
sa(dp13
g4
I3
sg5
F3.4034034034034035
sg6
I7
sg7
I00
sg8
I34
sa(dp14
g4
I3
sg5
F1.8018018018018018
sg6
I5
sg7
I00
sg8
I18
sa(dp15
g4
I3
sg5
F0.9009009009009009
sg6
I3
sg7
I00
sg8
I9
sa(dp16
g4
I4
sg5
F0.2002002002002002
sg6
I7
sg7
I00
sg8
I2
sa(dp17
g4
I1
sg5
F7.007007007007007
sg6
I5
sg7
I00
sg8
I70
sa(dp18
g4
I3
sg5
F0.3003003003003003
sg6
I0
sg7
I00
sg8
I3
sa(dp19
g4
I1
sg5
F1.901901901901902
sg6
I7
sg7
I00
sg8
I19
sa(dp20
g4
I7
sg5
F0.2002002002002002
sg6
I4
sg7
I00
sg8
I2
sa(dp21
g4
I3
sg5
F0.3003003003003003
sg6
I4
sg7
I00
sg8
I3
sasS'numberOfReads'
p22
I999
s.