(dp0
S'results'
p1
(lp2
(dp3
S'a'
p4
I7
sS'percentageOfOccurrences'
p5
F1.0030090270812437
sS'b'
p6
I7
sS'valid'
p7
I01
sS'numOfOccurrences'
p8
I10
sa(dp9
g4
I7
sg5
F1.2036108324974926
sg6
I5
sg7
I00
sg8
I12
sa(dp10
g4
I5
sg5
F2.6078234704112337
sg6
I5
sg7
I00
sg8
I26
sa(dp11
g4
I5
sg5
F0.10030090270812438
sg6
I7
sg7
I00
sg8
I1
sa(dp12
g4
I1
sg5
F76.22868605817452
sg6
I1
sg7
I00
sg8
I760
sa(dp13
g4
I3
sg5
F2.106318956870612
sg6
I5
sg7
I00
sg8
I21
sa(dp14
g4
I7
sg5
F5.4162487462387165
sg6
I3
sg7
I00
sg8
I54
sa(dp15
g4
I6
sg5
F0.4012036108324975
sg6
I7
sg7
I00
sg8
I4
sa(dp16
g4
I4
sg5
F1.5045135406218655
sg6
I7
sg7
I00
sg8
I15
sa(dp17
g4
I3
sg5
F1.5045135406218655
sg6
I3
sg7
I00
sg8
I15
sa(dp18
g4
I3
sg5
F0.7021063189568706
sg6
I7
sg7
I00
sg8
I7
sa(dp19
g4
I7
sg5
F0.6018054162487463
sg6
I4
sg7
I00
sg8
I6
sa(dp20
g4
I5
sg5
F0.10030090270812438
sg6
I0
sg7
I00
sg8
I1
sa(dp21
g4
I1
sg5
F1.9057171514543632
sg6
I3
sg7
I00
sg8
I19
sa(dp22
g4
I5
sg5
F1.103309929789368
sg6
I1
sg7
I00
sg8
I11
sa(dp23
g4
I0
sg5
F1.3039117352056169
sg6
I3
sg7
I00
sg8
I13
sa(dp24
g4
I7
sg5
F1.0030090270812437
sg6
I0
sg7
I00
sg8
I10
sa(dp25
g4
I0
sg5
F0.7021063189568706
sg6
I7
sg7
I00
sg8
I7
sa(dp26
g4
I6
sg5
F0.10030090270812438
sg6
I5
sg7
I00
sg8
I1
sa(dp27
g4
I6
sg5
F0.10030090270812438
sg6
I4
sg7
I00
sg8
I1
sa(dp28
g4
I4
sg5
F0.10030090270812438
sg6
I5
sg7
I00
sg8
I1
sa(dp29
g4
I5
sg5
F0.10030090270812438
sg6
I4
sg7
I00
sg8
I1
sa(dp30
g4
I2
sg5
F0.10030090270812438
sg6
I7
sg7
I00
sg8
I1
sasS'numberOfReads'
p31
I997
s.