(dp0
S'results'
p1
(lp2
(dp3
S'a'
p4
I7
sS'percentageOfOccurrences'
p5
F4.504504504504505
sS'b'
p6
I7
sS'valid'
p7
I01
sS'numOfOccurrences'
p8
I45
sa(dp9
g4
I5
sg5
F19.21921921921922
sg6
I5
sg7
I00
sg8
I192
sa(dp10
g4
I7
sg5
F2.9029029029029028
sg6
I5
sg7
I00
sg8
I29
sa(dp11
g4
I5
sg5
F2.6026026026026026
sg6
I7
sg7
I00
sg8
I26
sa(dp12
g4
I1
sg5
F55.55555555555556
sg6
I1
sg7
I00
sg8
I555
sa(dp13
g4
I3
sg5
F3.3033033033033035
sg6
I7
sg7
I00
sg8
I33
sa(dp14
g4
I3
sg5
F1.1011011011011012
sg6
I3
sg7
I00
sg8
I11
sa(dp15
g4
I3
sg5
F1.8018018018018018
sg6
I5
sg7
I00
sg8
I18
sa(dp16
g4
I1
sg5
F6.906906906906907
sg6
I5
sg7
I00
sg8
I69
sa(dp17
g4
I1
sg5
F1.8018018018018018
sg6
I7
sg7
I00
sg8
I18
sa(dp18
g4
I3
sg5
F0.1001001001001001
sg6
I0
sg7
I00
sg8
I1
sa(dp19
g4
I3
sg5
F0.2002002002002002
sg6
I4
sg7
I00
sg8
I2
sasS'numberOfReads'
p20
I999
s.