(dp0
S'results'
p1
(lp2
(dp3
S'a'
p4
I7
sS'percentageOfOccurrences'
p5
F0.6
sS'b'
p6
I7
sS'valid'
p7
I01
sS'numOfOccurrences'
p8
I6
sa(dp9
g4
I5
sg5
F20.3
sg6
I5
sg7
I00
sg8
I203
sa(dp10
g4
I7
sg5
F1.9
sg6
I5
sg7
I00
sg8
I19
sa(dp11
g4
I5
sg5
F0.5
sg6
I7
sg7
I00
sg8
I5
sa(dp12
g4
I4
sg5
F18.7
sg6
I7
sg7
I00
sg8
I187
sa(dp13
g4
I1
sg5
F26.7
sg6
I1
sg7
I00
sg8
I267
sa(dp14
g4
I7
sg5
F2.8
sg6
I3
sg7
I00
sg8
I28
sa(dp15
g4
I3
sg5
F0.1
sg6
I7
sg7
I00
sg8
I1
sa(dp16
g4
I6
sg5
F0.2
sg6
I7
sg7
I00
sg8
I2
sa(dp17
g4
I5
sg5
F22.7
sg6
I1
sg7
I00
sg8
I227
sa(dp18
g4
I4
sg5
F0.5
sg6
I6
sg7
I00
sg8
I5
sa(dp19
g4
I1
sg5
F1.3
sg6
I3
sg7
I00
sg8
I13
sa(dp20
g4
I4
sg5
F2.1
sg6
I5
sg7
I00
sg8
I21
sa(dp21
g4
I0
sg5
F0.5
sg6
I7
sg7
I00
sg8
I5
sa(dp22
g4
I6
sg5
F0.1
sg6
I6
sg7
I00
sg8
I1
sa(dp23
g4
I0
sg5
F0.2
sg6
I3
sg7
I00
sg8
I2
sa(dp24
g4
I1
sg5
F0.3
sg6
I7
sg7
I00
sg8
I3
sa(dp25
g4
I3
sg5
F0.2
sg6
I3
sg7
I00
sg8
I2
sa(dp26
g4
I7
sg5
F0.3
sg6
I1
sg7
I00
sg8
I3
sasS'numberOfReads'
p27
I1000
s.