(dp0
S'results'
p1
(lp2
(dp3
S'a'
p4
I7
sS'percentageOfOccurrences'
p5
F4.909819639278557
sS'b'
p6
I7
sS'valid'
p7
I01
sS'numOfOccurrences'
p8
I49
sa(dp9
g4
I5
sg5
F20.140280561122246
sg6
I5
sg7
I00
sg8
I201
sa(dp10
g4
I7
sg5
F3.1062124248496996
sg6
I5
sg7
I00
sg8
I31
sa(dp11
g4
I5
sg5
F3.7074148296593186
sg6
I7
sg7
I00
sg8
I37
sa(dp12
g4
I1
sg5
F51.20240480961924
sg6
I1
sg7
I00
sg8
I511
sa(dp13
g4
I3
sg5
F3.6072144288577155
sg6
I7
sg7
I00
sg8
I36
sa(dp14
g4
I3
sg5
F1.2024048096192386
sg6
I5
sg7
I00
sg8
I12
sa(dp15
g4
I3
sg5
F1.2024048096192386
sg6
I3
sg7
I00
sg8
I12
sa(dp16
g4
I4
sg5
F0.30060120240480964
sg6
I7
sg7
I00
sg8
I3
sa(dp17
g4
I7
sg5
F0.10020040080160321
sg6
I6
sg7
I00
sg8
I1
sa(dp18
g4
I1
sg5
F7.715430861723447
sg6
I5
sg7
I00
sg8
I77
sa(dp19
g4
I1
sg5
F2.50501002004008
sg6
I7
sg7
I00
sg8
I25
sa(dp20
g4
I3
sg5
F0.10020040080160321
sg6
I0
sg7
I00
sg8
I1
sa(dp21
g4
I7
sg5
F0.10020040080160321
sg6
I4
sg7
I00
sg8
I1
sa(dp22
g4
I3
sg5
F0.10020040080160321
sg6
I4
sg7
I00
sg8
I1
sasS'numberOfReads'
p23
I998
s.