(dp0
S'results'
p1
(lp2
(dp3
S'a'
p4
I7
sS'percentageOfOccurrences'
p5
F1.7
sS'b'
p6
I7
sS'valid'
p7
I01
sS'numOfOccurrences'
p8
I17
sa(dp9
g4
I7
sg5
F3.4
sg6
I5
sg7
I00
sg8
I34
sa(dp10
g4
I5
sg5
F18.2
sg6
I5
sg7
I00
sg8
I182
sa(dp11
g4
I5
sg5
F0.7
sg6
I7
sg7
I00
sg8
I7
sa(dp12
g4
I1
sg5
F42.2
sg6
I1
sg7
I00
sg8
I422
sa(dp13
g4
I4
sg5
F5.8
sg6
I7
sg7
I00
sg8
I58
sa(dp14
g4
I6
sg5
F1.3
sg6
I7
sg7
I00
sg8
I13
sa(dp15
g4
I7
sg5
F0.7
sg6
I3
sg7
I00
sg8
I7
sa(dp16
g4
I3
sg5
F0.9
sg6
I3
sg7
I00
sg8
I9
sa(dp17
g4
I5
sg5
F20.7
sg6
I1
sg7
I00
sg8
I207
sa(dp18
g4
I0
sg5
F0.2
sg6
I3
sg7
I00
sg8
I2
sa(dp19
g4
I6
sg5
F0.4
sg6
I5
sg7
I00
sg8
I4
sa(dp20
g4
I4
sg5
F2.0
sg6
I5
sg7
I00
sg8
I20
sa(dp21
g4
I1
sg5
F1.1
sg6
I3
sg7
I00
sg8
I11
sa(dp22
g4
I0
sg5
F0.5
sg6
I7
sg7
I00
sg8
I5
sa(dp23
g4
I4
sg5
F0.2
sg6
I6
sg7
I00
sg8
I2
sasS'numberOfReads'
p24
I1000
s.