(dp0
S'results'
p1
(lp2
(dp3
S'a'
p4
I7
sS'percentageOfOccurrences'
p5
F0.40080160320641284
sS'b'
p6
I7
sS'valid'
p7
I01
sS'numOfOccurrences'
p8
I4
sa(dp9
g4
I5
sg5
F2.3046092184368736
sg6
I5
sg7
I00
sg8
I23
sa(dp10
g4
I5
sg5
F0.20040080160320642
sg6
I7
sg7
I00
sg8
I2
sa(dp11
g4
I7
sg5
F0.501002004008016
sg6
I5
sg7
I00
sg8
I5
sa(dp12
g4
I1
sg5
F78.55711422845691
sg6
I1
sg7
I00
sg8
I784
sa(dp13
g4
I4
sg5
F8.71743486973948
sg6
I7
sg7
I00
sg8
I87
sa(dp14
g4
I7
sg5
F1.002004008016032
sg6
I3
sg7
I00
sg8
I10
sa(dp15
g4
I6
sg5
F0.30060120240480964
sg6
I7
sg7
I00
sg8
I3
sa(dp16
g4
I3
sg5
F0.501002004008016
sg6
I5
sg7
I00
sg8
I5
sa(dp17
g4
I3
sg5
F0.30060120240480964
sg6
I3
sg7
I00
sg8
I3
sa(dp18
g4
I3
sg5
F0.10020040080160321
sg6
I7
sg7
I00
sg8
I1
sa(dp19
g4
I3
sg5
F0.8016032064128257
sg6
I1
sg7
I00
sg8
I8
sa(dp20
g4
I5
sg5
F2.80561122244489
sg6
I1
sg7
I00
sg8
I28
sa(dp21
g4
I1
sg5
F1.503006012024048
sg6
I5
sg7
I00
sg8
I15
sa(dp22
g4
I5
sg5
F0.30060120240480964
sg6
I0
sg7
I00
sg8
I3
sa(dp23
g4
I1
sg5
F0.8016032064128257
sg6
I7
sg7
I00
sg8
I8
sa(dp24
g4
I3
sg5
F0.501002004008016
sg6
I0
sg7
I00
sg8
I5
sa(dp25
g4
I4
sg5
F0.30060120240480964
sg6
I5
sg7
I00
sg8
I3
sa(dp26
g4
I5
sg5
F0.10020040080160321
sg6
I4
sg7
I00
sg8
I1
sasS'numberOfReads'
p27
I998
s.