(dp0
S'results'
p1
(lp2
(dp3
S'a'
p4
I7
sS'percentageOfOccurrences'
p5
F9.70970970970971
sS'b'
p6
I7
sS'valid'
p7
I01
sS'numOfOccurrences'
p8
I97
sa(dp9
g4
I7
sg5
F11.21121121121121
sg6
I5
sg7
I00
sg8
I112
sa(dp10
g4
I5
sg5
F11.911911911911911
sg6
I5
sg7
I00
sg8
I119
sa(dp11
g4
I5
sg5
F0.8008008008008008
sg6
I7
sg7
I00
sg8
I8
sa(dp12
g4
I1
sg5
F36.73673673673674
sg6
I1
sg7
I00
sg8
I367
sa(dp13
g4
I3
sg5
F13.213213213213214
sg6
I5
sg7
I00
sg8
I132
sa(dp14
g4
I3
sg5
F7.5075075075075075
sg6
I3
sg7
I00
sg8
I75
sa(dp15
g4
I3
sg5
F8.308308308308309
sg6
I7
sg7
I00
sg8
I83
sa(dp16
g4
I1
sg5
F0.6006006006006006
sg6
I5
sg7
I00
sg8
I6
sasS'numberOfReads'
p17
I999
s.