(dp0
S'results'
p1
(lp2
(dp3
S'a'
p4
I7
sS'percentageOfOccurrences'
p5
F7.214428857715431
sS'b'
p6
I7
sS'valid'
p7
I01
sS'numOfOccurrences'
p8
I72
sa(dp9
g4
I7
sg5
F2.80561122244489
sg6
I5
sg7
I00
sg8
I28
sa(dp10
g4
I5
sg5
F25.551102204408817
sg6
I5
sg7
I00
sg8
I255
sa(dp11
g4
I5
sg5
F2.80561122244489
sg6
I7
sg7
I00
sg8
I28
sa(dp12
g4
I1
sg5
F40.38076152304609
sg6
I1
sg7
I00
sg8
I403
sa(dp13
g4
I3
sg5
F4.909819639278557
sg6
I7
sg7
I00
sg8
I49
sa(dp14
g4
I3
sg5
F0.9018036072144289
sg6
I5
sg7
I00
sg8
I9
sa(dp15
g4
I3
sg5
F2.7054108216432864
sg6
I3
sg7
I00
sg8
I27
sa(dp16
g4
I4
sg5
F0.501002004008016
sg6
I7
sg7
I00
sg8
I5
sa(dp17
g4
I5
sg5
F0.8016032064128257
sg6
I1
sg7
I00
sg8
I8
sa(dp18
g4
I0
sg5
F0.501002004008016
sg6
I3
sg7
I00
sg8
I5
sa(dp19
g4
I1
sg5
F4.809619238476954
sg6
I5
sg7
I00
sg8
I48
sa(dp20
g4
I0
sg5
F0.6012024048096193
sg6
I7
sg7
I00
sg8
I6
sa(dp21
g4
I1
sg5
F4.709418837675351
sg6
I7
sg7
I00
sg8
I47
sa(dp22
g4
I1
sg5
F0.7014028056112225
sg6
I3
sg7
I00
sg8
I7
sa(dp23
g4
I4
sg5
F0.10020040080160321
sg6
I5
sg7
I00
sg8
I1
sasS'numberOfReads'
p24
I998
s.