(dp0
S'results'
p1
(lp2
(dp3
S'a'
p4
I7
sS'percentageOfOccurrences'
p5
F3.8
sS'b'
p6
I7
sS'valid'
p7
I01
sS'numOfOccurrences'
p8
I38
sa(dp9
g4
I5
sg5
F12.2
sg6
I5
sg7
I00
sg8
I122
sa(dp10
g4
I7
sg5
F1.7
sg6
I5
sg7
I00
sg8
I17
sa(dp11
g4
I5
sg5
F2.9
sg6
I7
sg7
I00
sg8
I29
sa(dp12
g4
I1
sg5
F61.5
sg6
I1
sg7
I00
sg8
I615
sa(dp13
g4
I3
sg5
F2.4
sg6
I7
sg7
I00
sg8
I24
sa(dp14
g4
I4
sg5
F0.7
sg6
I7
sg7
I00
sg8
I7
sa(dp15
g4
I3
sg5
F0.4
sg6
I3
sg7
I00
sg8
I4
sa(dp16
g4
I3
sg5
F0.6
sg6
I5
sg7
I00
sg8
I6
sa(dp17
g4
I1
sg5
F7.7
sg6
I7
sg7
I00
sg8
I77
sa(dp18
g4
I1
sg5
F3.2
sg6
I3
sg7
I00
sg8
I32
sa(dp19
g4
I0
sg5
F1.2
sg6
I7
sg7
I00
sg8
I12
sa(dp20
g4
I1
sg5
F0.9
sg6
I5
sg7
I00
sg8
I9
sa(dp21
g4
I0
sg5
F0.8
sg6
I3
sg7
I00
sg8
I8
sasS'numberOfReads'
p22
I1000
s.