(dp0
S'results'
p1
(lp2
(dp3
S'a'
p4
I7
sS'percentageOfOccurrences'
p5
F3.003003003003003
sS'b'
p6
I7
sS'valid'
p7
I01
sS'numOfOccurrences'
p8
I30
sa(dp9
g4
I5
sg5
F19.31931931931932
sg6
I5
sg7
I00
sg8
I193
sa(dp10
g4
I7
sg5
F1.8018018018018018
sg6
I5
sg7
I00
sg8
I18
sa(dp11
g4
I5
sg5
F0.6006006006006006
sg6
I7
sg7
I00
sg8
I6
sa(dp12
g4
I4
sg5
F9.90990990990991
sg6
I7
sg7
I00
sg8
I99
sa(dp13
g4
I1
sg5
F38.63863863863864
sg6
I1
sg7
I00
sg8
I386
sa(dp14
g4
I6
sg5
F1.3013013013013013
sg6
I7
sg7
I00
sg8
I13
sa(dp15
g4
I7
sg5
F1.001001001001001
sg6
I3
sg7
I00
sg8
I10
sa(dp16
g4
I3
sg5
F1.1011011011011012
sg6
I3
sg7
I00
sg8
I11
sa(dp17
g4
I5
sg5
F17.117117117117118
sg6
I1
sg7
I00
sg8
I171
sa(dp18
g4
I1
sg5
F2.2022022022022023
sg6
I3
sg7
I00
sg8
I22
sa(dp19
g4
I0
sg5
F0.9009009009009009
sg6
I7
sg7
I00
sg8
I9
sa(dp20
g4
I4
sg5
F0.8008008008008008
sg6
I5
sg7
I00
sg8
I8
sa(dp21
g4
I4
sg5
F0.6006006006006006
sg6
I6
sg7
I00
sg8
I6
sa(dp22
g4
I7
sg5
F1.2012012012012012
sg6
I4
sg7
I00
sg8
I12
sa(dp23
g4
I0
sg5
F0.3003003003003003
sg6
I3
sg7
I00
sg8
I3
sa(dp24
g4
I1
sg5
F0.1001001001001001
sg6
I7
sg7
I00
sg8
I1
sa(dp25
g4
I5
sg5
F0.1001001001001001
sg6
I3
sg7
I00
sg8
I1
sasS'numberOfReads'
p26
I999
s.