(dp0
S'results'
p1
(lp2
(dp3
S'a'
p4
I7
sS'percentageOfOccurrences'
p5
F7.715430861723447
sS'b'
p6
I7
sS'valid'
p7
I01
sS'numOfOccurrences'
p8
I77
sa(dp9
g4
I7
sg5
F10.420841683366733
sg6
I5
sg7
I00
sg8
I104
sa(dp10
g4
I5
sg5
F13.026052104208416
sg6
I5
sg7
I00
sg8
I130
sa(dp11
g4
I5
sg5
F0.8016032064128257
sg6
I7
sg7
I00
sg8
I8
sa(dp12
g4
I1
sg5
F43.38677354709419
sg6
I1
sg7
I00
sg8
I433
sa(dp13
g4
I6
sg5
F0.20040080160320642
sg6
I5
sg7
I00
sg8
I2
sa(dp14
g4
I3
sg5
F3.1062124248496996
sg6
I3
sg7
I00
sg8
I31
sa(dp15
g4
I7
sg5
F0.9018036072144289
sg6
I3
sg7
I00
sg8
I9
sa(dp16
g4
I3
sg5
F4.3086172344689375
sg6
I7
sg7
I00
sg8
I43
sa(dp17
g4
I3
sg5
F7.615230460921843
sg6
I5
sg7
I00
sg8
I76
sa(dp18
g4
I7
sg5
F0.501002004008016
sg6
I4
sg7
I00
sg8
I5
sa(dp19
g4
I4
sg5
F0.40080160320641284
sg6
I7
sg7
I00
sg8
I4
sa(dp20
g4
I1
sg5
F0.9018036072144289
sg6
I3
sg7
I00
sg8
I9
sa(dp21
g4
I3
sg5
F2.50501002004008
sg6
I4
sg7
I00
sg8
I25
sa(dp22
g4
I1
sg5
F3.406813627254509
sg6
I5
sg7
I00
sg8
I34
sa(dp23
g4
I7
sg5
F0.10020040080160321
sg6
I1
sg7
I00
sg8
I1
sa(dp24
g4
I0
sg5
F0.501002004008016
sg6
I7
sg7
I00
sg8
I5
sa(dp25
g4
I0
sg5
F0.10020040080160321
sg6
I3
sg7
I00
sg8
I1
sa(dp26
g4
I3
sg5
F0.10020040080160321
sg6
I6
sg7
I00
sg8
I1
sasS'numberOfReads'
p27
I998
s.