(dp0
S'results'
p1
(lp2
(dp3
S'a'
p4
I7
sS'percentageOfOccurrences'
p5
F4.504504504504505
sS'b'
p6
I7
sS'valid'
p7
I01
sS'numOfOccurrences'
p8
I45
sa(dp9
g4
I5
sg5
F18.11811811811812
sg6
I5
sg7
I00
sg8
I181
sa(dp10
g4
I5
sg5
F3.3033033033033035
sg6
I7
sg7
I00
sg8
I33
sa(dp11
g4
I7
sg5
F3.6036036036036037
sg6
I5
sg7
I00
sg8
I36
sa(dp12
g4
I1
sg5
F50.650650650650654
sg6
I1
sg7
I00
sg8
I506
sa(dp13
g4
I7
sg5
F2.5025025025025025
sg6
I3
sg7
I00
sg8
I25
sa(dp14
g4
I5
sg5
F3.2032032032032034
sg6
I3
sg7
I00
sg8
I32
sa(dp15
g4
I3
sg5
F0.8008008008008008
sg6
I3
sg7
I00
sg8
I8
sa(dp16
g4
I4
sg5
F0.2002002002002002
sg6
I7
sg7
I00
sg8
I2
sa(dp17
g4
I5
sg5
F10.71071071071071
sg6
I1
sg7
I00
sg8
I107
sa(dp18
g4
I1
sg5
F1.901901901901902
sg6
I3
sg7
I00
sg8
I19
sa(dp19
g4
I0
sg5
F0.4004004004004004
sg6
I3
sg7
I00
sg8
I4
sa(dp20
g4
I7
sg5
F0.1001001001001001
sg6
I0
sg7
I00
sg8
I1
sasS'numberOfReads'
p21
I999
s.