(dp0
S'results'
p1
(lp2
(dp3
S'a'
p4
I5
sS'percentageOfOccurrences'
p5
F2.5
sS'b'
p6
I5
sS'valid'
p7
I00
sS'numOfOccurrences'
p8
I25
sa(dp9
g4
I7
sg5
F0.4
sg6
I5
sg7
I00
sg8
I4
sa(dp10
g4
I5
sg5
F0.2
sg6
I7
sg7
I00
sg8
I2
sa(dp11
g4
I1
sg5
F82.3
sg6
I1
sg7
I00
sg8
I823
sa(dp12
g4
I4
sg5
F6.7
sg6
I7
sg7
I00
sg8
I67
sa(dp13
g4
I7
sg5
F0.7
sg6
I3
sg7
I00
sg8
I7
sa(dp14
g4
I3
sg5
F0.3
sg6
I7
sg7
I00
sg8
I3
sa(dp15
g4
I3
sg5
F0.2
sg6
I3
sg7
I00
sg8
I2
sa(dp16
g4
I3
sg5
F0.9
sg6
I5
sg7
I00
sg8
I9
sa(dp17
g4
I6
sg5
F0.2
sg6
I7
sg7
I00
sg8
I2
sa(dp18
g4
I5
sg5
F2.0
sg6
I1
sg7
I00
sg8
I20
sa(dp19
g4
I1
sg5
F0.5
sg6
I7
sg7
I00
sg8
I5
sa(dp20
g4
I5
sg5
F0.5
sg6
I0
sg7
I00
sg8
I5
sa(dp21
g4
I1
sg5
F1.0
sg6
I5
sg7
I00
sg8
I10
sa(dp22
g4
I4
sg5
F0.1
sg6
I6
sg7
I00
sg8
I1
sa(dp23
g4
I4
sg5
F0.1
sg6
I5
sg7
I00
sg8
I1
sa(dp24
g4
I3
sg5
F1.2
sg6
I1
sg7
I00
sg8
I12
sa(dp25
g4
I3
sg5
F0.1
sg6
I0
sg7
I00
sg8
I1
sa(dp26
g4
I2
sg5
F0.1
sg6
I4
sg7
I00
sg8
I1
sasS'numberOfReads'
p27
I1000
s.