(dp0
S'results'
p1
(lp2
(dp3
S'a'
p4
I7
sS'percentageOfOccurrences'
p5
F3.4034034034034035
sS'b'
p6
I7
sS'valid'
p7
I01
sS'numOfOccurrences'
p8
I34
sa(dp9
g4
I5
sg5
F15.515515515515515
sg6
I5
sg7
I00
sg8
I155
sa(dp10
g4
I7
sg5
F2.3023023023023024
sg6
I5
sg7
I00
sg8
I23
sa(dp11
g4
I5
sg5
F0.5005005005005005
sg6
I7
sg7
I00
sg8
I5
sa(dp12
g4
I1
sg5
F36.83683683683684
sg6
I1
sg7
I00
sg8
I368
sa(dp13
g4
I4
sg5
F11.811811811811811
sg6
I7
sg7
I00
sg8
I118
sa(dp14
g4
I7
sg5
F1.5015015015015014
sg6
I3
sg7
I00
sg8
I15
sa(dp15
g4
I6
sg5
F2.5025025025025025
sg6
I7
sg7
I00
sg8
I25
sa(dp16
g4
I3
sg5
F0.1001001001001001
sg6
I7
sg7
I00
sg8
I1
sa(dp17
g4
I3
sg5
F0.4004004004004004
sg6
I3
sg7
I00
sg8
I4
sa(dp18
g4
I5
sg5
F18.71871871871872
sg6
I1
sg7
I00
sg8
I187
sa(dp19
g4
I7
sg5
F1.6016016016016017
sg6
I4
sg7
I00
sg8
I16
sa(dp20
g4
I0
sg5
F0.3003003003003003
sg6
I3
sg7
I00
sg8
I3
sa(dp21
g4
I4
sg5
F1.5015015015015014
sg6
I5
sg7
I00
sg8
I15
sa(dp22
g4
I5
sg5
F0.1001001001001001
sg6
I3
sg7
I00
sg8
I1
sa(dp23
g4
I6
sg5
F0.2002002002002002
sg6
I5
sg7
I00
sg8
I2
sa(dp24
g4
I0
sg5
F0.5005005005005005
sg6
I7
sg7
I00
sg8
I5
sa(dp25
g4
I1
sg5
F1.4014014014014013
sg6
I3
sg7
I00
sg8
I14
sa(dp26
g4
I7
sg5
F0.2002002002002002
sg6
I0
sg7
I00
sg8
I2
sa(dp27
g4
I4
sg5
F0.4004004004004004
sg6
I6
sg7
I00
sg8
I4
sa(dp28
g4
I6
sg5
F0.2002002002002002
sg6
I4
sg7
I00
sg8
I2
sasS'numberOfReads'
p29
I999
s.