(dp0
S'results'
p1
(lp2
(dp3
S'a'
p4
I7
sS'percentageOfOccurrences'
p5
F7.607607607607608
sS'b'
p6
I7
sS'valid'
p7
I01
sS'numOfOccurrences'
p8
I76
sa(dp9
g4
I7
sg5
F4.404404404404405
sg6
I5
sg7
I00
sg8
I44
sa(dp10
g4
I5
sg5
F11.711711711711711
sg6
I5
sg7
I00
sg8
I117
sa(dp11
g4
I5
sg5
F4.604604604604605
sg6
I7
sg7
I00
sg8
I46
sa(dp12
g4
I4
sg5
F0.6006006006006006
sg6
I7
sg7
I00
sg8
I6
sa(dp13
g4
I1
sg5
F57.55755755755756
sg6
I1
sg7
I00
sg8
I575
sa(dp14
g4
I7
sg5
F5.105105105105105
sg6
I3
sg7
I00
sg8
I51
sa(dp15
g4
I5
sg5
F3.903903903903904
sg6
I3
sg7
I00
sg8
I39
sa(dp16
g4
I3
sg5
F1.3013013013013013
sg6
I3
sg7
I00
sg8
I13
sa(dp17
g4
I5
sg5
F2.9029029029029028
sg6
I1
sg7
I00
sg8
I29
sa(dp18
g4
I7
sg5
F0.3003003003003003
sg6
I0
sg7
I00
sg8
I3
sasS'numberOfReads'
p19
I999
s.