(dp0
S'results'
p1
(lp2
(dp3
S'a'
p4
I7
sS'percentageOfOccurrences'
p5
F9.80980980980981
sS'b'
p6
I7
sS'valid'
p7
I01
sS'numOfOccurrences'
p8
I98
sa(dp9
g4
I7
sg5
F9.80980980980981
sg6
I5
sg7
I00
sg8
I98
sa(dp10
g4
I5
sg5
F9.10910910910911
sg6
I5
sg7
I00
sg8
I91
sa(dp11
g4
I1
sg5
F32.832832832832835
sg6
I1
sg7
I00
sg8
I328
sa(dp12
g4
I3
sg5
F11.21121121121121
sg6
I7
sg7
I00
sg8
I112
sa(dp13
g4
I3
sg5
F15.415415415415415
sg6
I5
sg7
I00
sg8
I154
sa(dp14
g4
I7
sg5
F3.3033033033033035
sg6
I4
sg7
I00
sg8
I33
sa(dp15
g4
I3
sg5
F2.2022022022022023
sg6
I3
sg7
I00
sg8
I22
sa(dp16
g4
I1
sg5
F2.002002002002002
sg6
I5
sg7
I00
sg8
I20
sa(dp17
g4
I1
sg5
F1.001001001001001
sg6
I7
sg7
I00
sg8
I10
sa(dp18
g4
I3
sg5
F0.7007007007007007
sg6
I4
sg7
I00
sg8
I7
sa(dp19
g4
I0
sg5
F0.4004004004004004
sg6
I7
sg7
I00
sg8
I4
sa(dp20
g4
I7
sg5
F1.2012012012012012
sg6
I0
sg7
I00
sg8
I12
sa(dp21
g4
I5
sg5
F0.2002002002002002
sg6
I1
sg7
I00
sg8
I2
sa(dp22
g4
I1
sg5
F0.4004004004004004
sg6
I3
sg7
I00
sg8
I4
sa(dp23
g4
I0
sg5
F0.2002002002002002
sg6
I3
sg7
I00
sg8
I2
sa(dp24
g4
I5
sg5
F0.2002002002002002
sg6
I4
sg7
I00
sg8
I2
sasS'numberOfReads'
p25
I999
s.