(dp0
S'results'
p1
(lp2
(dp3
S'a'
p4
I7
sS'percentageOfOccurrences'
p5
F3.5
sS'b'
p6
I7
sS'valid'
p7
I01
sS'numOfOccurrences'
p8
I35
sa(dp9
g4
I5
sg5
F3.9
sg6
I7
sg7
I00
sg8
I39
sa(dp10
g4
I5
sg5
F19.9
sg6
I5
sg7
I00
sg8
I199
sa(dp11
g4
I7
sg5
F4.3
sg6
I5
sg7
I00
sg8
I43
sa(dp12
g4
I1
sg5
F47.7
sg6
I1
sg7
I00
sg8
I477
sa(dp13
g4
I3
sg5
F2.8
sg6
I5
sg7
I00
sg8
I28
sa(dp14
g4
I3
sg5
F2.2
sg6
I7
sg7
I00
sg8
I22
sa(dp15
g4
I3
sg5
F0.4
sg6
I3
sg7
I00
sg8
I4
sa(dp16
g4
I4
sg5
F0.4
sg6
I7
sg7
I00
sg8
I4
sa(dp17
g4
I1
sg5
F8.5
sg6
I5
sg7
I00
sg8
I85
sa(dp18
g4
I1
sg5
F4.4
sg6
I7
sg7
I00
sg8
I44
sa(dp19
g4
I1
sg5
F1.1
sg6
I3
sg7
I00
sg8
I11
sa(dp20
g4
I0
sg5
F0.9
sg6
I7
sg7
I00
sg8
I9
sasS'numberOfReads'
p21
I1000
s.