(dp0
S'results'
p1
(lp2
(dp3
S'a'
p4
I7
sS'percentageOfOccurrences'
p5
F5.205205205205205
sS'b'
p6
I7
sS'valid'
p7
I01
sS'numOfOccurrences'
p8
I52
sa(dp9
g4
I5
sg5
F21.92192192192192
sg6
I5
sg7
I00
sg8
I219
sa(dp10
g4
I7
sg5
F4.2042042042042045
sg6
I5
sg7
I00
sg8
I42
sa(dp11
g4
I5
sg5
F3.103103103103103
sg6
I7
sg7
I00
sg8
I31
sa(dp12
g4
I1
sg5
F47.347347347347345
sg6
I1
sg7
I00
sg8
I473
sa(dp13
g4
I3
sg5
F3.3033033033033035
sg6
I7
sg7
I00
sg8
I33
sa(dp14
g4
I3
sg5
F2.6026026026026026
sg6
I5
sg7
I00
sg8
I26
sa(dp15
g4
I3
sg5
F1.901901901901902
sg6
I3
sg7
I00
sg8
I19
sa(dp16
g4
I4
sg5
F0.1001001001001001
sg6
I7
sg7
I00
sg8
I1
sa(dp17
g4
I7
sg5
F0.1001001001001001
sg6
I6
sg7
I00
sg8
I1
sa(dp18
g4
I1
sg5
F7.007007007007007
sg6
I5
sg7
I00
sg8
I70
sa(dp19
g4
I1
sg5
F2.3023023023023024
sg6
I7
sg7
I00
sg8
I23
sa(dp20
g4
I3
sg5
F0.4004004004004004
sg6
I4
sg7
I00
sg8
I4
sa(dp21
g4
I3
sg5
F0.5005005005005005
sg6
I0
sg7
I00
sg8
I5
sasS'numberOfReads'
p22
I999
s.