(dp0
S'results'
p1
(lp2
(dp3
S'a'
p4
I7
sS'percentageOfOccurrences'
p5
F4.509018036072145
sS'b'
p6
I7
sS'valid'
p7
I01
sS'numOfOccurrences'
p8
I45
sa(dp9
g4
I5
sg5
F7.014028056112225
sg6
I5
sg7
I00
sg8
I70
sa(dp10
g4
I7
sg5
F1.8036072144288577
sg6
I5
sg7
I00
sg8
I18
sa(dp11
g4
I5
sg5
F2.004008016032064
sg6
I7
sg7
I00
sg8
I20
sa(dp12
g4
I1
sg5
F73.24649298597194
sg6
I1
sg7
I00
sg8
I731
sa(dp13
g4
I5
sg5
F1.7034068136272544
sg6
I3
sg7
I00
sg8
I17
sa(dp14
g4
I3
sg5
F1.1022044088176353
sg6
I7
sg7
I00
sg8
I11
sa(dp15
g4
I7
sg5
F2.7054108216432864
sg6
I3
sg7
I00
sg8
I27
sa(dp16
g4
I3
sg5
F1.2024048096192386
sg6
I3
sg7
I00
sg8
I12
sa(dp17
g4
I7
sg5
F0.30060120240480964
sg6
I6
sg7
I00
sg8
I3
sa(dp18
g4
I4
sg5
F0.10020040080160321
sg6
I7
sg7
I00
sg8
I1
sa(dp19
g4
I3
sg5
F0.10020040080160321
sg6
I5
sg7
I00
sg8
I1
sa(dp20
g4
I1
sg5
F1.9038076152304608
sg6
I5
sg7
I00
sg8
I19
sa(dp21
g4
I1
sg5
F0.6012024048096193
sg6
I7
sg7
I00
sg8
I6
sa(dp22
g4
I5
sg5
F0.8016032064128257
sg6
I1
sg7
I00
sg8
I8
sa(dp23
g4
I4
sg5
F0.10020040080160321
sg6
I3
sg7
I00
sg8
I1
sa(dp24
g4
I0
sg5
F0.10020040080160321
sg6
I7
sg7
I00
sg8
I1
sa(dp25
g4
I7
sg5
F0.10020040080160321
sg6
I0
sg7
I00
sg8
I1
sa(dp26
g4
I0
sg5
F0.10020040080160321
sg6
I5
sg7
I00
sg8
I1
sa(dp27
g4
I2
sg5
F0.10020040080160321
sg6
I6
sg7
I00
sg8
I1
sa(dp28
g4
I3
sg5
F0.20040080160320642
sg6
I4
sg7
I00
sg8
I2
sa(dp29
g4
I7
sg5
F0.10020040080160321
sg6
I4
sg7
I00
sg8
I1
sa(dp30
g4
I3
sg5
F0.10020040080160321
sg6
I6
sg7
I00
sg8
I1
sasS'numberOfReads'
p31
I998
s.