(dp0
S'results'
p1
(lp2
(dp3
S'a'
p4
I7
sS'percentageOfOccurrences'
p5
F4.4
sS'b'
p6
I7
sS'valid'
p7
I01
sS'numOfOccurrences'
p8
I44
sa(dp9
g4
I5
sg5
F70.0
sg6
I5
sg7
I00
sg8
I700
sa(dp10
g4
I5
sg5
F8.1
sg6
I7
sg7
I00
sg8
I81
sa(dp11
g4
I7
sg5
F12.9
sg6
I5
sg7
I00
sg8
I129
sa(dp12
g4
I4
sg5
F1.1
sg6
I7
sg7
I00
sg8
I11
sa(dp13
g4
I7
sg5
F0.1
sg6
I6
sg7
I00
sg8
I1
sa(dp14
g4
I7
sg5
F0.6
sg6
I3
sg7
I00
sg8
I6
sa(dp15
g4
I3
sg5
F0.6
sg6
I3
sg7
I00
sg8
I6
sa(dp16
g4
I1
sg5
F1.0
sg6
I3
sg7
I00
sg8
I10
sa(dp17
g4
I0
sg5
F0.2
sg6
I3
sg7
I00
sg8
I2
sa(dp18
g4
I1
sg5
F0.2
sg6
I1
sg7
I00
sg8
I2
sa(dp19
g4
I3
sg5
F0.2
sg6
I0
sg7
I00
sg8
I2
sa(dp20
g4
I0
sg5
F0.6
sg6
I7
sg7
I00
sg8
I6
sasS'numberOfReads'
p21
I1000
s.