(dp0
S'results'
p1
(lp2
(dp3
S'a'
p4
I7
sS'percentageOfOccurrences'
p5
F6.606606606606607
sS'b'
p6
I7
sS'valid'
p7
I01
sS'numOfOccurrences'
p8
I66
sa(dp9
g4
I5
sg5
F19.11911911911912
sg6
I5
sg7
I00
sg8
I191
sa(dp10
g4
I7
sg5
F4.004004004004004
sg6
I5
sg7
I00
sg8
I40
sa(dp11
g4
I5
sg5
F4.2042042042042045
sg6
I7
sg7
I00
sg8
I42
sa(dp12
g4
I1
sg5
F45.24524524524524
sg6
I1
sg7
I00
sg8
I452
sa(dp13
g4
I3
sg5
F3.003003003003003
sg6
I5
sg7
I00
sg8
I30
sa(dp14
g4
I3
sg5
F1.7017017017017018
sg6
I7
sg7
I00
sg8
I17
sa(dp15
g4
I4
sg5
F0.5005005005005005
sg6
I7
sg7
I00
sg8
I5
sa(dp16
g4
I3
sg5
F0.9009009009009009
sg6
I3
sg7
I00
sg8
I9
sa(dp17
g4
I1
sg5
F4.604604604604605
sg6
I7
sg7
I00
sg8
I46
sa(dp18
g4
I1
sg5
F8.70870870870871
sg6
I5
sg7
I00
sg8
I87
sa(dp19
g4
I1
sg5
F0.6006006006006006
sg6
I3
sg7
I00
sg8
I6
sa(dp20
g4
I3
sg5
F0.1001001001001001
sg6
I1
sg7
I00
sg8
I1
sa(dp21
g4
I0
sg5
F0.4004004004004004
sg6
I7
sg7
I00
sg8
I4
sa(dp22
g4
I0
sg5
F0.3003003003003003
sg6
I3
sg7
I00
sg8
I3
sasS'numberOfReads'
p23
I999
s.