(dp0
S'results'
p1
(lp2
(dp3
S'a'
p4
I7
sS'percentageOfOccurrences'
p5
F6.806806806806807
sS'b'
p6
I7
sS'valid'
p7
I01
sS'numOfOccurrences'
p8
I68
sa(dp9
g4
I5
sg5
F23.423423423423422
sg6
I5
sg7
I00
sg8
I234
sa(dp10
g4
I5
sg5
F2.2022022022022023
sg6
I7
sg7
I00
sg8
I22
sa(dp11
g4
I7
sg5
F3.6036036036036037
sg6
I5
sg7
I00
sg8
I36
sa(dp12
g4
I1
sg5
F46.146146146146144
sg6
I1
sg7
I00
sg8
I461
sa(dp13
g4
I3
sg5
F1.4014014014014013
sg6
I3
sg7
I00
sg8
I14
sa(dp14
g4
I3
sg5
F3.2032032032032034
sg6
I7
sg7
I00
sg8
I32
sa(dp15
g4
I3
sg5
F2.4024024024024024
sg6
I5
sg7
I00
sg8
I24
sa(dp16
g4
I4
sg5
F0.4004004004004004
sg6
I7
sg7
I00
sg8
I4
sa(dp17
g4
I1
sg5
F7.007007007007007
sg6
I5
sg7
I00
sg8
I70
sa(dp18
g4
I1
sg5
F3.103103103103103
sg6
I7
sg7
I00
sg8
I31
sa(dp19
g4
I3
sg5
F0.3003003003003003
sg6
I4
sg7
I00
sg8
I3
sasS'numberOfReads'
p20
I999
s.