(dp0
S'results'
p1
(lp2
(dp3
S'a'
p4
I7
sS'percentageOfOccurrences'
p5
F1.1011011011011012
sS'b'
p6
I7
sS'valid'
p7
I01
sS'numOfOccurrences'
p8
I11
sa(dp9
g4
I7
sg5
F1.4014014014014013
sg6
I5
sg7
I00
sg8
I14
sa(dp10
g4
I5
sg5
F0.1001001001001001
sg6
I7
sg7
I00
sg8
I1
sa(dp11
g4
I5
sg5
F2.8028028028028027
sg6
I5
sg7
I00
sg8
I28
sa(dp12
g4
I1
sg5
F74.27427427427428
sg6
I1
sg7
I00
sg8
I742
sa(dp13
g4
I4
sg5
F1.1011011011011012
sg6
I7
sg7
I00
sg8
I11
sa(dp14
g4
I3
sg5
F1.7017017017017018
sg6
I5
sg7
I00
sg8
I17
sa(dp15
g4
I7
sg5
F5.405405405405405
sg6
I3
sg7
I00
sg8
I54
sa(dp16
g4
I3
sg5
F1.1011011011011012
sg6
I7
sg7
I00
sg8
I11
sa(dp17
g4
I6
sg5
F0.4004004004004004
sg6
I7
sg7
I00
sg8
I4
sa(dp18
g4
I3
sg5
F2.2022022022022023
sg6
I3
sg7
I00
sg8
I22
sa(dp19
g4
I7
sg5
F1.3013013013013013
sg6
I0
sg7
I00
sg8
I13
sa(dp20
g4
I1
sg5
F3.103103103103103
sg6
I3
sg7
I00
sg8
I31
sa(dp21
g4
I6
sg5
F0.2002002002002002
sg6
I4
sg7
I00
sg8
I2
sa(dp22
g4
I0
sg5
F1.1011011011011012
sg6
I3
sg7
I00
sg8
I11
sa(dp23
g4
I5
sg5
F1.2012012012012012
sg6
I1
sg7
I00
sg8
I12
sa(dp24
g4
I4
sg5
F0.1001001001001001
sg6
I5
sg7
I00
sg8
I1
sa(dp25
g4
I0
sg5
F0.8008008008008008
sg6
I7
sg7
I00
sg8
I8
sa(dp26
g4
I5
sg5
F0.2002002002002002
sg6
I0
sg7
I00
sg8
I2
sa(dp27
g4
I7
sg5
F0.1001001001001001
sg6
I4
sg7
I00
sg8
I1
sa(dp28
g4
I4
sg5
F0.1001001001001001
sg6
I6
sg7
I00
sg8
I1
sa(dp29
g4
I2
sg5
F0.1001001001001001
sg6
I6
sg7
I00
sg8
I1
sa(dp30
g4
I2
sg5
F0.1001001001001001
sg6
I7
sg7
I00
sg8
I1
sasS'numberOfReads'
p31
I999
s.