(dp0
S'results'
p1
(lp2
(dp3
S'a'
p4
I7
sS'percentageOfOccurrences'
p5
F5.210420841683367
sS'b'
p6
I7
sS'valid'
p7
I01
sS'numOfOccurrences'
p8
I52
sa(dp9
g4
I5
sg5
F8.817635270541082
sg6
I5
sg7
I00
sg8
I88
sa(dp10
g4
I7
sg5
F1.402805611222445
sg6
I5
sg7
I00
sg8
I14
sa(dp11
g4
I5
sg5
F0.501002004008016
sg6
I7
sg7
I00
sg8
I5
sa(dp12
g4
I1
sg5
F39.67935871743487
sg6
I1
sg7
I00
sg8
I396
sa(dp13
g4
I6
sg5
F2.6052104208416833
sg6
I7
sg7
I00
sg8
I26
sa(dp14
g4
I7
sg5
F11.823647294589179
sg6
I3
sg7
I00
sg8
I118
sa(dp15
g4
I4
sg5
F4.3086172344689375
sg6
I7
sg7
I00
sg8
I43
sa(dp16
g4
I3
sg5
F1.402805611222445
sg6
I3
sg7
I00
sg8
I14
sa(dp17
g4
I5
sg5
F0.7014028056112225
sg6
I3
sg7
I00
sg8
I7
sa(dp18
g4
I7
sg5
F0.501002004008016
sg6
I4
sg7
I00
sg8
I5
sa(dp19
g4
I5
sg5
F21.142284569138276
sg6
I1
sg7
I00
sg8
I211
sa(dp20
g4
I1
sg5
F0.20040080160320642
sg6
I5
sg7
I00
sg8
I2
sa(dp21
g4
I4
sg5
F1.1022044088176353
sg6
I5
sg7
I00
sg8
I11
sa(dp22
g4
I5
sg5
F0.40080160320641284
sg6
I4
sg7
I00
sg8
I4
sa(dp23
g4
I0
sg5
F0.10020040080160321
sg6
I5
sg7
I00
sg8
I1
sa(dp24
g4
I4
sg5
F0.10020040080160321
sg6
I4
sg7
I00
sg8
I1
sasS'numberOfReads'
p25
I998
s.