(dp0
S'results'
p1
(lp2
(dp3
S'a'
p4
I7
sS'percentageOfOccurrences'
p5
F4.2
sS'b'
p6
I7
sS'valid'
p7
I01
sS'numOfOccurrences'
p8
I42
sa(dp9
g4
I5
sg5
F10.9
sg6
I5
sg7
I00
sg8
I109
sa(dp10
g4
I7
sg5
F1.3
sg6
I5
sg7
I00
sg8
I13
sa(dp11
g4
I1
sg5
F40.8
sg6
I1
sg7
I00
sg8
I408
sa(dp12
g4
I4
sg5
F3.5
sg6
I7
sg7
I00
sg8
I35
sa(dp13
g4
I7
sg5
F14.3
sg6
I3
sg7
I00
sg8
I143
sa(dp14
g4
I6
sg5
F2.5
sg6
I7
sg7
I00
sg8
I25
sa(dp15
g4
I3
sg5
F1.1
sg6
I3
sg7
I00
sg8
I11
sa(dp16
g4
I7
sg5
F0.5
sg6
I4
sg7
I00
sg8
I5
sa(dp17
g4
I5
sg5
F0.2
sg6
I3
sg7
I00
sg8
I2
sa(dp18
g4
I5
sg5
F19.8
sg6
I1
sg7
I00
sg8
I198
sa(dp19
g4
I4
sg5
F0.9
sg6
I5
sg7
I00
sg8
I9
sasS'numberOfReads'
p20
I1000
s.