(dp0
S'results'
p1
(lp2
(dp3
S'a'
p4
I7
sS'percentageOfOccurrences'
p5
F9.3
sS'b'
p6
I7
sS'valid'
p7
I01
sS'numOfOccurrences'
p8
I93
sa(dp9
g4
I5
sg5
F8.9
sg6
I5
sg7
I00
sg8
I89
sa(dp10
g4
I7
sg5
F11.2
sg6
I5
sg7
I00
sg8
I112
sa(dp11
g4
I5
sg5
F0.2
sg6
I7
sg7
I00
sg8
I2
sa(dp12
g4
I3
sg5
F8.2
sg6
I7
sg7
I00
sg8
I82
sa(dp13
g4
I3
sg5
F14.9
sg6
I5
sg7
I00
sg8
I149
sa(dp14
g4
I1
sg5
F35.4
sg6
I1
sg7
I00
sg8
I354
sa(dp15
g4
I7
sg5
F3.4
sg6
I4
sg7
I00
sg8
I34
sa(dp16
g4
I3
sg5
F2.5
sg6
I3
sg7
I00
sg8
I25
sa(dp17
g4
I1
sg5
F2.3
sg6
I5
sg7
I00
sg8
I23
sa(dp18
g4
I3
sg5
F0.5
sg6
I4
sg7
I00
sg8
I5
sa(dp19
g4
I7
sg5
F1.1
sg6
I0
sg7
I00
sg8
I11
sa(dp20
g4
I1
sg5
F0.9
sg6
I7
sg7
I00
sg8
I9
sa(dp21
g4
I6
sg5
F0.2
sg6
I4
sg7
I00
sg8
I2
sa(dp22
g4
I0
sg5
F0.2
sg6
I7
sg7
I00
sg8
I2
sa(dp23
g4
I5
sg5
F0.1
sg6
I4
sg7
I00
sg8
I1
sa(dp24
g4
I0
sg5
F0.1
sg6
I3
sg7
I00
sg8
I1
sa(dp25
g4
I1
sg5
F0.2
sg6
I3
sg7
I00
sg8
I2
sa(dp26
g4
I5
sg5
F0.2
sg6
I1
sg7
I00
sg8
I2
sa(dp27
g4
I5
sg5
F0.2
sg6
I0
sg7
I00
sg8
I2
sasS'numberOfReads'
p28
I1000
s.