(dp0
S'results'
p1
(lp2
(dp3
S'a'
p4
I7
sS'percentageOfOccurrences'
p5
F9.9
sS'b'
p6
I7
sS'valid'
p7
I01
sS'numOfOccurrences'
p8
I99
sa(dp9
g4
I5
sg5
F47.5
sg6
I5
sg7
I00
sg8
I475
sa(dp10
g4
I7
sg5
F4.2
sg6
I5
sg7
I00
sg8
I42
sa(dp11
g4
I5
sg5
F5.6
sg6
I7
sg7
I00
sg8
I56
sa(dp12
g4
I1
sg5
F27.4
sg6
I1
sg7
I00
sg8
I274
sa(dp13
g4
I4
sg5
F1.0
sg6
I7
sg7
I00
sg8
I10
sa(dp14
g4
I5
sg5
F0.7
sg6
I6
sg7
I00
sg8
I7
sa(dp15
g4
I3
sg5
F0.2
sg6
I7
sg7
I00
sg8
I2
sa(dp16
g4
I7
sg5
F0.2
sg6
I3
sg7
I00
sg8
I2
sa(dp17
g4
I3
sg5
F0.1
sg6
I5
sg7
I00
sg8
I1
sa(dp18
g4
I0
sg5
F0.4
sg6
I7
sg7
I00
sg8
I4
sa(dp19
g4
I5
sg5
F0.9
sg6
I1
sg7
I00
sg8
I9
sa(dp20
g4
I1
sg5
F0.7
sg6
I7
sg7
I00
sg8
I7
sa(dp21
g4
I1
sg5
F1.1
sg6
I3
sg7
I00
sg8
I11
sa(dp22
g4
I7
sg5
F0.1
sg6
I0
sg7
I00
sg8
I1
sasS'numberOfReads'
p23
I1000
s.