(dp0
S'results'
p1
(lp2
(dp3
S'a'
p4
I7
sS'percentageOfOccurrences'
p5
F3.8
sS'b'
p6
I7
sS'valid'
p7
I01
sS'numOfOccurrences'
p8
I38
sa(dp9
g4
I5
sg5
F8.1
sg6
I5
sg7
I00
sg8
I81
sa(dp10
g4
I7
sg5
F2.7
sg6
I5
sg7
I00
sg8
I27
sa(dp11
g4
I5
sg5
F3.2
sg6
I7
sg7
I00
sg8
I32
sa(dp12
g4
I1
sg5
F68.3
sg6
I1
sg7
I00
sg8
I683
sa(dp13
g4
I7
sg5
F1.5
sg6
I3
sg7
I00
sg8
I15
sa(dp14
g4
I3
sg5
F1.1
sg6
I3
sg7
I00
sg8
I11
sa(dp15
g4
I4
sg5
F0.5
sg6
I7
sg7
I00
sg8
I5
sa(dp16
g4
I3
sg5
F1.6
sg6
I7
sg7
I00
sg8
I16
sa(dp17
g4
I3
sg5
F0.9
sg6
I5
sg7
I00
sg8
I9
sa(dp18
g4
I1
sg5
F2.1
sg6
I5
sg7
I00
sg8
I21
sa(dp19
g4
I5
sg5
F2.5
sg6
I1
sg7
I00
sg8
I25
sa(dp20
g4
I1
sg5
F0.8
sg6
I7
sg7
I00
sg8
I8
sa(dp21
g4
I4
sg5
F0.1
sg6
I3
sg7
I00
sg8
I1
sa(dp22
g4
I5
sg5
F0.6
sg6
I3
sg7
I00
sg8
I6
sa(dp23
g4
I1
sg5
F1.1
sg6
I3
sg7
I00
sg8
I11
sa(dp24
g4
I0
sg5
F0.4
sg6
I7
sg7
I00
sg8
I4
sa(dp25
g4
I0
sg5
F0.4
sg6
I3
sg7
I00
sg8
I4
sa(dp26
g4
I3
sg5
F0.1
sg6
I0
sg7
I00
sg8
I1
sa(dp27
g4
I5
sg5
F0.2
sg6
I0
sg7
I00
sg8
I2
sasS'numberOfReads'
p28
I1000
s.