(dp0
S'results'
p1
(lp2
(dp3
S'a'
p4
I7
sS'percentageOfOccurrences'
p5
F7.5075075075075075
sS'b'
p6
I7
sS'valid'
p7
I01
sS'numOfOccurrences'
p8
I75
sa(dp9
g4
I5
sg5
F19.91991991991992
sg6
I5
sg7
I00
sg8
I199
sa(dp10
g4
I5
sg5
F7.007007007007007
sg6
I7
sg7
I00
sg8
I70
sa(dp11
g4
I7
sg5
F3.103103103103103
sg6
I5
sg7
I00
sg8
I31
sa(dp12
g4
I5
sg5
F6.506506506506507
sg6
I3
sg7
I00
sg8
I65
sa(dp13
g4
I1
sg5
F34.234234234234236
sg6
I1
sg7
I00
sg8
I342
sa(dp14
g4
I7
sg5
F6.606606606606607
sg6
I3
sg7
I00
sg8
I66
sa(dp15
g4
I3
sg5
F1.7017017017017018
sg6
I3
sg7
I00
sg8
I17
sa(dp16
g4
I4
sg5
F0.1001001001001001
sg6
I7
sg7
I00
sg8
I1
sa(dp17
g4
I3
sg5
F0.1001001001001001
sg6
I7
sg7
I00
sg8
I1
sa(dp18
g4
I5
sg5
F11.31131131131131
sg6
I1
sg7
I00
sg8
I113
sa(dp19
g4
I1
sg5
F1.3013013013013013
sg6
I3
sg7
I00
sg8
I13
sa(dp20
g4
I3
sg5
F0.1001001001001001
sg6
I0
sg7
I00
sg8
I1
sa(dp21
g4
I0
sg5
F0.2002002002002002
sg6
I3
sg7
I00
sg8
I2
sa(dp22
g4
I0
sg5
F0.1001001001001001
sg6
I7
sg7
I00
sg8
I1
sa(dp23
g4
I1
sg5
F0.1001001001001001
sg6
I7
sg7
I00
sg8
I1
sa(dp24
g4
I4
sg5
F0.1001001001001001
sg6
I3
sg7
I00
sg8
I1
sasS'numberOfReads'
p25
I999
s.