(dp0
S'results'
p1
(lp2
(dp3
S'a'
p4
I7
sS'percentageOfOccurrences'
p5
F3.2064128256513027
sS'b'
p6
I7
sS'valid'
p7
I01
sS'numOfOccurrences'
p8
I32
sa(dp9
g4
I5
sg5
F15.93186372745491
sg6
I5
sg7
I00
sg8
I159
sa(dp10
g4
I7
sg5
F1.402805611222445
sg6
I5
sg7
I00
sg8
I14
sa(dp11
g4
I5
sg5
F0.7014028056112225
sg6
I7
sg7
I00
sg8
I7
sa(dp12
g4
I1
sg5
F43.08617234468938
sg6
I1
sg7
I00
sg8
I430
sa(dp13
g4
I6
sg5
F1.9038076152304608
sg6
I7
sg7
I00
sg8
I19
sa(dp14
g4
I7
sg5
F0.8016032064128257
sg6
I3
sg7
I00
sg8
I8
sa(dp15
g4
I4
sg5
F9.819639278557114
sg6
I7
sg7
I00
sg8
I98
sa(dp16
g4
I1
sg5
F2.7054108216432864
sg6
I3
sg7
I00
sg8
I27
sa(dp17
g4
I5
sg5
F15.731462925851703
sg6
I1
sg7
I00
sg8
I157
sa(dp18
g4
I7
sg5
F0.9018036072144289
sg6
I4
sg7
I00
sg8
I9
sa(dp19
g4
I4
sg5
F1.3026052104208417
sg6
I5
sg7
I00
sg8
I13
sa(dp20
g4
I4
sg5
F0.7014028056112225
sg6
I6
sg7
I00
sg8
I7
sa(dp21
g4
I0
sg5
F1.002004008016032
sg6
I7
sg7
I00
sg8
I10
sa(dp22
g4
I6
sg5
F0.10020040080160321
sg6
I4
sg7
I00
sg8
I1
sa(dp23
g4
I0
sg5
F0.501002004008016
sg6
I3
sg7
I00
sg8
I5
sa(dp24
g4
I6
sg5
F0.10020040080160321
sg6
I6
sg7
I00
sg8
I1
sa(dp25
g4
I3
sg5
F0.10020040080160321
sg6
I3
sg7
I00
sg8
I1
sasS'numberOfReads'
p26
I998
s.