(dp0
S'results'
p1
(lp2
(dp3
S'a'
p4
I7
sS'percentageOfOccurrences'
p5
F8.5
sS'b'
p6
I7
sS'valid'
p7
I01
sS'numOfOccurrences'
p8
I85
sa(dp9
g4
I5
sg5
F66.2
sg6
I5
sg7
I00
sg8
I662
sa(dp10
g4
I7
sg5
F12.3
sg6
I5
sg7
I00
sg8
I123
sa(dp11
g4
I5
sg5
F10.3
sg6
I7
sg7
I00
sg8
I103
sa(dp12
g4
I4
sg5
F0.6
sg6
I7
sg7
I00
sg8
I6
sa(dp13
g4
I7
sg5
F0.5
sg6
I3
sg7
I00
sg8
I5
sa(dp14
g4
I3
sg5
F0.3
sg6
I3
sg7
I00
sg8
I3
sa(dp15
g4
I0
sg5
F0.1
sg6
I3
sg7
I00
sg8
I1
sa(dp16
g4
I5
sg5
F0.1
sg6
I4
sg7
I00
sg8
I1
sa(dp17
g4
I1
sg5
F0.3
sg6
I3
sg7
I00
sg8
I3
sa(dp18
g4
I1
sg5
F0.3
sg6
I7
sg7
I00
sg8
I3
sa(dp19
g4
I0
sg5
F0.2
sg6
I7
sg7
I00
sg8
I2
sa(dp20
g4
I7
sg5
F0.1
sg6
I2
sg7
I00
sg8
I1
sa(dp21
g4
I3
sg5
F0.2
sg6
I2
sg7
I00
sg8
I2
sasS'numberOfReads'
p22
I1000
s.