(dp0
S'results'
p1
(lp2
(dp3
S'a'
p4
I7
sS'percentageOfOccurrences'
p5
F1.4
sS'b'
p6
I7
sS'valid'
p7
I01
sS'numOfOccurrences'
p8
I14
sa(dp9
g4
I7
sg5
F98.3
sg6
I5
sg7
I00
sg8
I983
sa(dp10
g4
I5
sg5
F0.1
sg6
I5
sg7
I00
sg8
I1
sa(dp11
g4
I5
sg5
F0.2
sg6
I7
sg7
I00
sg8
I2
sasS'numberOfReads'
p12
I1000
s.