(dp0
S'results'
p1
(lp2
(dp3
S'a'
p4
I7
sS'percentageOfOccurrences'
p5
F20.0
sS'b'
p6
I7
sS'valid'
p7
I01
sS'numOfOccurrences'
p8
I200
sa(dp9
g4
I5
sg5
F33.3
sg6
I5
sg7
I00
sg8
I333
sa(dp10
g4
I5
sg5
F13.6
sg6
I7
sg7
I00
sg8
I136
sa(dp11
g4
I7
sg5
F32.4
sg6
I5
sg7
I00
sg8
I324
sa(dp12
g4
I7
sg5
F0.4
sg6
I3
sg7
I00
sg8
I4
sa(dp13
g4
I7
sg5
F0.3
sg6
I1
sg7
I00
sg8
I3
sasS'numberOfReads'
p14
I1000
s.