(dp0
S'results'
p1
(lp2
(dp3
S'a'
p4
I5
sS'percentageOfOccurrences'
p5
F3.7
sS'b'
p6
I5
sS'valid'
p7
I00
sS'numOfOccurrences'
p8
I37
sa(dp9
g4
I7
sg5
F76.9
sg6
I5
sg7
I00
sg8
I769
sa(dp10
g4
I5
sg5
F4.8
sg6
I7
sg7
I00
sg8
I48
sa(dp11
g4
I7
sg5
F0.3
sg6
I3
sg7
I00
sg8
I3
sa(dp12
g4
I3
sg5
F8.4
sg6
I7
sg7
I00
sg8
I84
sa(dp13
g4
I3
sg5
F2.1
sg6
I5
sg7
I00
sg8
I21
sa(dp14
g4
I7
sg5
F0.1
sg6
I7
sg7
I01
sg8
I1
sa(dp15
g4
I7
sg5
F2.7
sg6
I1
sg7
I00
sg8
I27
sa(dp16
g4
I7
sg5
F0.6
sg6
I6
sg7
I00
sg8
I6
sa(dp17
g4
I1
sg5
F0.3
sg6
I7
sg7
I00
sg8
I3
sa(dp18
g4
I5
sg5
F0.1
sg6
I6
sg7
I00
sg8
I1
sasS'numberOfReads'
p19
I1000
s.