(dp0
S'results'
p1
(lp2
(dp3
S'a'
p4
I7
sS'percentageOfOccurrences'
p5
F62.7
sS'b'
p6
I7
sS'valid'
p7
I01
sS'numOfOccurrences'
p8
I627
sa(dp9
g4
I7
sg5
F5.9
sg6
I5
sg7
I00
sg8
I59
sa(dp10
g4
I5
sg5
F11.3
sg6
I5
sg7
I00
sg8
I113
sa(dp11
g4
I5
sg5
F16.7
sg6
I7
sg7
I00
sg8
I167
sa(dp12
g4
I7
sg5
F2.1
sg6
I3
sg7
I00
sg8
I21
sa(dp13
g4
I3
sg5
F0.4
sg6
I7
sg7
I00
sg8
I4
sa(dp14
g4
I5
sg5
F0.7
sg6
I3
sg7
I00
sg8
I7
sa(dp15
g4
I5
sg5
F0.2
sg6
I1
sg7
I00
sg8
I2
sasS'numberOfReads'
p16
I1000
s.