(dp0
S'results'
p1
(lp2
(dp3
S'a'
p4
I7
sS'percentageOfOccurrences'
p5
F8.9
sS'b'
p6
I7
sS'valid'
p7
I01
sS'numOfOccurrences'
p8
I89
sa(dp9
g4
I5
sg5
F90.8
sg6
I7
sg7
I00
sg8
I908
sa(dp10
g4
I7
sg5
F0.2
sg6
I5
sg7
I00
sg8
I2
sa(dp11
g4
I7
sg5
F0.1
sg6
I4
sg7
I00
sg8
I1
sasS'numberOfReads'
p12
I1000
s.