(dp0
S'results'
p1
(lp2
(dp3
S'a'
p4
I7
sS'percentageOfOccurrences'
p5
F59.1
sS'b'
p6
I7
sS'valid'
p7
I01
sS'numOfOccurrences'
p8
I591
sa(dp9
g4
I5
sg5
F4.1
sg6
I5
sg7
I00
sg8
I41
sa(dp10
g4
I5
sg5
F6.4
sg6
I7
sg7
I00
sg8
I64
sa(dp11
g4
I7
sg5
F8.7
sg6
I3
sg7
I00
sg8
I87
sa(dp12
g4
I7
sg5
F0.1
sg6
I5
sg7
I00
sg8
I1
sa(dp13
g4
I4
sg5
F19.6
sg6
I7
sg7
I00
sg8
I196
sa(dp14
g4
I4
sg5
F1.8
sg6
I5
sg7
I00
sg8
I18
sa(dp15
g4
I1
sg5
F0.1
sg6
I5
sg7
I00
sg8
I1
sa(dp16
g4
I6
sg5
F0.1
sg6
I7
sg7
I00
sg8
I1
sasS'numberOfReads'
p17
I1000
s.