(dp0
S'results'
p1
(lp2
(dp3
S'a'
p4
I7
sS'percentageOfOccurrences'
p5
F77.2
sS'b'
p6
I7
sS'valid'
p7
I01
sS'numOfOccurrences'
p8
I772
sa(dp9
g4
I7
sg5
F4.2
sg6
I5
sg7
I00
sg8
I42
sa(dp10
g4
I5
sg5
F10.9
sg6
I5
sg7
I00
sg8
I109
sa(dp11
g4
I6
sg5
F2.1
sg6
I7
sg7
I00
sg8
I21
sa(dp12
g4
I3
sg5
F0.5
sg6
I7
sg7
I00
sg8
I5
sa(dp13
g4
I7
sg5
F2.0
sg6
I3
sg7
I00
sg8
I20
sa(dp14
g4
I7
sg5
F3.1
sg6
I1
sg7
I00
sg8
I31
sasS'numberOfReads'
p15
I1000
s.