(dp0
S'results'
p1
(lp2
(dp3
S'a'
p4
I7
sS'percentageOfOccurrences'
p5
F20.6
sS'b'
p6
I7
sS'valid'
p7
I01
sS'numOfOccurrences'
p8
I206
sa(dp9
g4
I7
sg5
F60.9
sg6
I5
sg7
I00
sg8
I609
sa(dp10
g4
I5
sg5
F18.5
sg6
I7
sg7
I00
sg8
I185
sasS'numberOfReads'
p11
I1000
s.