(dp0
S'results'
p1
(lp2
(dp3
S'a'
p4
I7
sS'percentageOfOccurrences'
p5
F67.8
sS'b'
p6
I7
sS'valid'
p7
I01
sS'numOfOccurrences'
p8
I678
sa(dp9
g4
I5
sg5
F13.8
sg6
I5
sg7
I00
sg8
I138
sa(dp10
g4
I5
sg5
F18.1
sg6
I7
sg7
I00
sg8
I181
sa(dp11
g4
I3
sg5
F0.3
sg6
I7
sg7
I00
sg8
I3
sasS'numberOfReads'
p12
I1000
s.