(dp0
S'results'
p1
(lp2
(dp3
S'a'
p4
I7
sS'percentageOfOccurrences'
p5
F6.0
sS'b'
p6
I7
sS'valid'
p7
I01
sS'numOfOccurrences'
p8
I60
sa(dp9
g4
I5
sg5
F6.5
sg6
I7
sg7
I00
sg8
I65
sa(dp10
g4
I5
sg5
F3.5
sg6
I5
sg7
I00
sg8
I35
sa(dp11
g4
I7
sg5
F0.6
sg6
I5
sg7
I00
sg8
I6
sa(dp12
g4
I7
sg5
F72.3
sg6
I3
sg7
I00
sg8
I723
sa(dp13
g4
I5
sg5
F7.9
sg6
I3
sg7
I00
sg8
I79
sa(dp14
g4
I4
sg5
F1.7
sg6
I7
sg7
I00
sg8
I17
sa(dp15
g4
I3
sg5
F0.3
sg6
I7
sg7
I00
sg8
I3
sa(dp16
g4
I1
sg5
F1.1
sg6
I7
sg7
I00
sg8
I11
sa(dp17
g4
I6
sg5
F0.1
sg6
I7
sg7
I00
sg8
I1
sasS'numberOfReads'
p18
I1000
s.