(dp0
S'results'
p1
(lp2
(dp3
S'a'
p4
I5
sS'percentageOfOccurrences'
p5
F98.3
sS'b'
p6
I7
sS'valid'
p7
I00
sS'numOfOccurrences'
p8
I983
sa(dp9
g4
I7
sg5
F1.5
sg6
I3
sg7
I00
sg8
I15
sa(dp10
g4
I7
sg5
F0.2
sg6
I1
sg7
I00
sg8
I2
sasS'numberOfReads'
p11
I1000
s.