(dp0
S'results'
p1
(lp2
(dp3
S'a'
p4
I7
sS'percentageOfOccurrences'
p5
F1.1
sS'b'
p6
I7
sS'valid'
p7
I01
sS'numOfOccurrences'
p8
I11
sa(dp9
g4
I5
sg5
F8.4
sg6
I5
sg7
I00
sg8
I84
sa(dp10
g4
I7
sg5
F46.3
sg6
I5
sg7
I00
sg8
I463
sa(dp11
g4
I5
sg5
F24.9
sg6
I7
sg7
I00
sg8
I249
sa(dp12
g4
I3
sg5
F13.5
sg6
I7
sg7
I00
sg8
I135
sa(dp13
g4
I7
sg5
F5.6
sg6
I4
sg7
I00
sg8
I56
sa(dp14
g4
I3
sg5
F0.2
sg6
I5
sg7
I00
sg8
I2
sasS'numberOfReads'
p15
I1000
s.