(dp0
S'results'
p1
(lp2
(dp3
S'a'
p4
I7
sS'percentageOfOccurrences'
p5
F16.3
sS'b'
p6
I7
sS'valid'
p7
I01
sS'numOfOccurrences'
p8
I163
sa(dp9
g4
I7
sg5
F24.7
sg6
I5
sg7
I00
sg8
I247
sa(dp10
g4
I5
sg5
F8.1
sg6
I5
sg7
I00
sg8
I81
sa(dp11
g4
I7
sg5
F10.3
sg6
I3
sg7
I00
sg8
I103
sa(dp12
g4
I3
sg5
F0.1
sg6
I7
sg7
I00
sg8
I1
sa(dp13
g4
I7
sg5
F0.1
sg6
I6
sg7
I00
sg8
I1
sa(dp14
g4
I5
sg5
F35.7
sg6
I1
sg7
I00
sg8
I357
sa(dp15
g4
I4
sg5
F0.2
sg6
I7
sg7
I00
sg8
I2
sa(dp16
g4
I7
sg5
F1.5
sg6
I1
sg7
I00
sg8
I15
sa(dp17
g4
I5
sg5
F3.0
sg6
I3
sg7
I00
sg8
I30
sasS'numberOfReads'
p18
I1000
s.