(dp0
S'results'
p1
(lp2
(dp3
S'a'
p4
I7
sS'percentageOfOccurrences'
p5
F1.5
sS'b'
p6
I7
sS'valid'
p7
I01
sS'numOfOccurrences'
p8
I15
sa(dp9
g4
I5
sg5
F28.4
sg6
I7
sg7
I00
sg8
I284
sa(dp10
g4
I5
sg5
F3.7
sg6
I5
sg7
I00
sg8
I37
sa(dp11
g4
I7
sg5
F64.0
sg6
I3
sg7
I00
sg8
I640
sa(dp12
g4
I7
sg5
F0.4
sg6
I6
sg7
I00
sg8
I4
sa(dp13
g4
I3
sg5
F0.2
sg6
I3
sg7
I00
sg8
I2
sa(dp14
g4
I7
sg5
F1.4
sg6
I2
sg7
I00
sg8
I14
sa(dp15
g4
I7
sg5
F0.4
sg6
I1
sg7
I00
sg8
I4
sasS'numberOfReads'
p16
I1000
s.