(dp0
S'results'
p1
(lp2
(dp3
S'a'
p4
I7
sS'percentageOfOccurrences'
p5
F2.8
sS'b'
p6
I7
sS'valid'
p7
I01
sS'numOfOccurrences'
p8
I28
sa(dp9
g4
I5
sg5
F80.2
sg6
I7
sg7
I00
sg8
I802
sa(dp10
g4
I3
sg5
F15.8
sg6
I7
sg7
I00
sg8
I158
sa(dp11
g4
I7
sg5
F0.1
sg6
I3
sg7
I00
sg8
I1
sa(dp12
g4
I6
sg5
F0.2
sg6
I7
sg7
I00
sg8
I2
sa(dp13
g4
I3
sg5
F0.2
sg6
I5
sg7
I00
sg8
I2
sa(dp14
g4
I1
sg5
F0.1
sg6
I5
sg7
I00
sg8
I1
sa(dp15
g4
I2
sg5
F0.1
sg6
I7
sg7
I00
sg8
I1
sa(dp16
g4
I1
sg5
F0.3
sg6
I7
sg7
I00
sg8
I3
sa(dp17
g4
I3
sg5
F0.1
sg6
I1
sg7
I00
sg8
I1
sa(dp18
g4
I2
sg5
F0.1
sg6
I5
sg7
I00
sg8
I1
sasS'numberOfReads'
p19
I1000
s.