(dp0
S'results'
p1
(lp2
(dp3
S'a'
p4
I5
sS'percentageOfOccurrences'
p5
F82.6
sS'b'
p6
I7
sS'valid'
p7
I00
sS'numOfOccurrences'
p8
I826
sa(dp9
g4
I5
sg5
F4.0
sg6
I5
sg7
I00
sg8
I40
sa(dp10
g4
I7
sg5
F0.2
sg6
I5
sg7
I00
sg8
I2
sa(dp11
g4
I3
sg5
F1.6
sg6
I7
sg7
I00
sg8
I16
sa(dp12
g4
I7
sg5
F0.1
sg6
I3
sg7
I00
sg8
I1
sa(dp13
g4
I7
sg5
F9.8
sg6
I7
sg7
I01
sg8
I98
sa(dp14
g4
I3
sg5
F1.6
sg6
I5
sg7
I00
sg8
I16
sa(dp15
g4
I1
sg5
F0.1
sg6
I5
sg7
I00
sg8
I1
sasS'numberOfReads'
p16
I1000
s.