(dp0
S'results'
p1
(lp2
(dp3
S'a'
p4
I7
sS'percentageOfOccurrences'
p5
F6.7
sS'b'
p6
I7
sS'valid'
p7
I01
sS'numOfOccurrences'
p8
I67
sa(dp9
g4
I5
sg5
F40.5
sg6
I5
sg7
I00
sg8
I405
sa(dp10
g4
I5
sg5
F3.4
sg6
I7
sg7
I00
sg8
I34
sa(dp11
g4
I7
sg5
F42.6
sg6
I3
sg7
I00
sg8
I426
sa(dp12
g4
I7
sg5
F0.2
sg6
I5
sg7
I00
sg8
I2
sa(dp13
g4
I1
sg5
F0.3
sg6
I7
sg7
I00
sg8
I3
sa(dp14
g4
I7
sg5
F6.1
sg6
I1
sg7
I00
sg8
I61
sa(dp15
g4
I5
sg5
F0.2
sg6
I1
sg7
I00
sg8
I2
sasS'numberOfReads'
p16
I1000
s.