(dp0
S'results'
p1
(lp2
(dp3
S'a'
p4
I7
sS'percentageOfOccurrences'
p5
F0.1
sS'b'
p6
I7
sS'valid'
p7
I01
sS'numOfOccurrences'
p8
I1
sa(dp9
g4
I5
sg5
F30.8
sg6
I5
sg7
I00
sg8
I308
sa(dp10
g4
I5
sg5
F62.3
sg6
I7
sg7
I00
sg8
I623
sa(dp11
g4
I7
sg5
F0.5
sg6
I5
sg7
I00
sg8
I5
sa(dp12
g4
I4
sg5
F6.3
sg6
I7
sg7
I00
sg8
I63
sasS'numberOfReads'
p13
I1000
s.