(dp0
S'results'
p1
(lp2
(dp3
S'a'
p4
I7
sS'percentageOfOccurrences'
p5
F3.0
sS'b'
p6
I7
sS'valid'
p7
I01
sS'numOfOccurrences'
p8
I30
sa(dp9
g4
I7
sg5
F90.5
sg6
I5
sg7
I00
sg8
I905
sa(dp10
g4
I5
sg5
F1.1
sg6
I5
sg7
I00
sg8
I11
sa(dp11
g4
I5
sg5
F0.1
sg6
I7
sg7
I00
sg8
I1
sa(dp12
g4
I5
sg5
F0.2
sg6
I3
sg7
I00
sg8
I2
sa(dp13
g4
I1
sg5
F0.5
sg6
I7
sg7
I00
sg8
I5
sa(dp14
g4
I7
sg5
F1.2
sg6
I1
sg7
I00
sg8
I12
sa(dp15
g4
I5
sg5
F1.9
sg6
I1
sg7
I00
sg8
I19
sa(dp16
g4
I7
sg5
F1.3
sg6
I0
sg7
I00
sg8
I13
sa(dp17
g4
I0
sg5
F0.2
sg6
I7
sg7
I00
sg8
I2
sasS'numberOfReads'
p18
I1000
s.