(dp0
S'results'
p1
(lp2
(dp3
S'a'
p4
I7
sS'percentageOfOccurrences'
p5
F4.7
sS'b'
p6
I7
sS'valid'
p7
I01
sS'numOfOccurrences'
p8
I47
sa(dp9
g4
I7
sg5
F40.8
sg6
I5
sg7
I00
sg8
I408
sa(dp10
g4
I5
sg5
F37.8
sg6
I7
sg7
I00
sg8
I378
sa(dp11
g4
I3
sg5
F1.6
sg6
I5
sg7
I00
sg8
I16
sa(dp12
g4
I1
sg5
F15.0
sg6
I7
sg7
I00
sg8
I150
sa(dp13
g4
I3
sg5
F0.1
sg6
I7
sg7
I00
sg8
I1
sasS'numberOfReads'
p14
I1000
s.