(dp0
S'results'
p1
(lp2
(dp3
S'a'
p4
I7
sS'percentageOfOccurrences'
p5
F61.3
sS'b'
p6
I7
sS'valid'
p7
I01
sS'numOfOccurrences'
p8
I613
sa(dp9
g4
I5
sg5
F3.7
sg6
I5
sg7
I00
sg8
I37
sa(dp10
g4
I7
sg5
F0.6
sg6
I3
sg7
I00
sg8
I6
sa(dp11
g4
I3
sg5
F11.9
sg6
I7
sg7
I00
sg8
I119
sa(dp12
g4
I4
sg5
F0.5
sg6
I7
sg7
I00
sg8
I5
sa(dp13
g4
I5
sg5
F19.0
sg6
I7
sg7
I00
sg8
I190
sa(dp14
g4
I7
sg5
F2.2
sg6
I6
sg7
I00
sg8
I22
sa(dp15
g4
I5
sg5
F0.3
sg6
I6
sg7
I00
sg8
I3
sa(dp16
g4
I3
sg5
F0.5
sg6
I6
sg7
I00
sg8
I5
sasS'numberOfReads'
p17
I1000
s.