(dp0
S'results'
p1
(lp2
(dp3
S'a'
p4
I7
sS'percentageOfOccurrences'
p5
F4.3
sS'b'
p6
I7
sS'valid'
p7
I01
sS'numOfOccurrences'
p8
I43
sa(dp9
g4
I7
sg5
F86.0
sg6
I5
sg7
I00
sg8
I860
sa(dp10
g4
I7
sg5
F1.2
sg6
I3
sg7
I00
sg8
I12
sa(dp11
g4
I5
sg5
F0.6
sg6
I5
sg7
I00
sg8
I6
sa(dp12
g4
I7
sg5
F6.4
sg6
I4
sg7
I00
sg8
I64
sa(dp13
g4
I5
sg5
F0.5
sg6
I7
sg7
I00
sg8
I5
sa(dp14
g4
I5
sg5
F0.1
sg6
I4
sg7
I00
sg8
I1
sa(dp15
g4
I3
sg5
F0.4
sg6
I5
sg7
I00
sg8
I4
sa(dp16
g4
I3
sg5
F0.3
sg6
I3
sg7
I00
sg8
I3
sa(dp17
g4
I6
sg5
F0.1
sg6
I3
sg7
I00
sg8
I1
sa(dp18
g4
I7
sg5
F0.1
sg6
I2
sg7
I00
sg8
I1
sasS'numberOfReads'
p19
I1000
s.