(dp0
S'results'
p1
(lp2
(dp3
S'a'
p4
I7
sS'percentageOfOccurrences'
p5
F1.1
sS'b'
p6
I7
sS'valid'
p7
I01
sS'numOfOccurrences'
p8
I11
sa(dp9
g4
I5
sg5
F35.4
sg6
I5
sg7
I00
sg8
I354
sa(dp10
g4
I5
sg5
F52.5
sg6
I7
sg7
I00
sg8
I525
sa(dp11
g4
I7
sg5
F0.2
sg6
I3
sg7
I00
sg8
I2
sa(dp12
g4
I7
sg5
F0.4
sg6
I5
sg7
I00
sg8
I4
sa(dp13
g4
I7
sg5
F0.2
sg6
I6
sg7
I00
sg8
I2
sa(dp14
g4
I5
sg5
F0.2
sg6
I3
sg7
I00
sg8
I2
sa(dp15
g4
I7
sg5
F0.1
sg6
I1
sg7
I00
sg8
I1
sa(dp16
g4
I1
sg5
F9.9
sg6
I1
sg7
I00
sg8
I99
sasS'numberOfReads'
p17
I1000
s.