(dp0
S'results'
p1
(lp2
(dp3
S'a'
p4
I7
sS'percentageOfOccurrences'
p5
F1.8
sS'b'
p6
I7
sS'valid'
p7
I01
sS'numOfOccurrences'
p8
I18
sa(dp9
g4
I5
sg5
F80.7
sg6
I5
sg7
I00
sg8
I807
sa(dp10
g4
I5
sg5
F12.0
sg6
I7
sg7
I00
sg8
I120
sa(dp11
g4
I5
sg5
F0.1
sg6
I6
sg7
I00
sg8
I1
sa(dp12
g4
I7
sg5
F5.4
sg6
I1
sg7
I00
sg8
I54
sasS'numberOfReads'
p13
I1000
s.