(dp0
S'results'
p1
(lp2
(dp3
S'a'
p4
I7
sS'percentageOfOccurrences'
p5
F3.2
sS'b'
p6
I7
sS'valid'
p7
I01
sS'numOfOccurrences'
p8
I32
sa(dp9
g4
I5
sg5
F25.8
sg6
I5
sg7
I00
sg8
I258
sa(dp10
g4
I7
sg5
F12.1
sg6
I5
sg7
I00
sg8
I121
sa(dp11
g4
I5
sg5
F3.0
sg6
I7
sg7
I00
sg8
I30
sa(dp12
g4
I7
sg5
F54.5
sg6
I1
sg7
I00
sg8
I545
sa(dp13
g4
I1
sg5
F0.2
sg6
I7
sg7
I00
sg8
I2
sa(dp14
g4
I5
sg5
F1.2
sg6
I1
sg7
I00
sg8
I12
sasS'numberOfReads'
p15
I1000
s.