(dp0
S'results'
p1
(lp2
(dp3
S'a'
p4
I7
sS'percentageOfOccurrences'
p5
F3.0
sS'b'
p6
I7
sS'valid'
p7
I01
sS'numOfOccurrences'
p8
I30
sa(dp9
g4
I5
sg5
F9.8
sg6
I5
sg7
I00
sg8
I98
sa(dp10
g4
I7
sg5
F81.3
sg6
I5
sg7
I00
sg8
I813
sa(dp11
g4
I5
sg5
F2.2
sg6
I7
sg7
I00
sg8
I22
sa(dp12
g4
I7
sg5
F3.7
sg6
I3
sg7
I00
sg8
I37
sasS'numberOfReads'
p13
I1000
s.