(dp0
S'results'
p1
(lp2
(dp3
S'a'
p4
I7
sS'percentageOfOccurrences'
p5
F13.4
sS'b'
p6
I7
sS'valid'
p7
I01
sS'numOfOccurrences'
p8
I134
sa(dp9
g4
I5
sg5
F51.8
sg6
I7
sg7
I00
sg8
I518
sa(dp10
g4
I5
sg5
F17.2
sg6
I5
sg7
I00
sg8
I172
sa(dp11
g4
I7
sg5
F4.7
sg6
I5
sg7
I00
sg8
I47
sa(dp12
g4
I7
sg5
F12.9
sg6
I6
sg7
I00
sg8
I129
sasS'numberOfReads'
p13
I1000
s.