(dp0
S'results'
p1
(lp2
(dp3
S'a'
p4
I7
sS'percentageOfOccurrences'
p5
F11.6
sS'b'
p6
I7
sS'valid'
p7
I01
sS'numOfOccurrences'
p8
I116
sa(dp9
g4
I5
sg5
F22.4
sg6
I7
sg7
I00
sg8
I224
sa(dp10
g4
I7
sg5
F0.6
sg6
I3
sg7
I00
sg8
I6
sa(dp11
g4
I7
sg5
F12.0
sg6
I6
sg7
I00
sg8
I120
sa(dp12
g4
I1
sg5
F16.2
sg6
I7
sg7
I00
sg8
I162
sa(dp13
g4
I3
sg5
F37.2
sg6
I7
sg7
I00
sg8
I372
sasS'numberOfReads'
p14
I1000
s.