(dp0
S'results'
p1
(lp2
(dp3
S'a'
p4
I7
sS'percentageOfOccurrences'
p5
F2.9
sS'b'
p6
I7
sS'valid'
p7
I01
sS'numOfOccurrences'
p8
I29
sa(dp9
g4
I5
sg5
F86.6
sg6
I5
sg7
I00
sg8
I866
sa(dp10
g4
I3
sg5
F2.2
sg6
I7
sg7
I00
sg8
I22
sa(dp11
g4
I5
sg5
F6.9
sg6
I7
sg7
I00
sg8
I69
sa(dp12
g4
I7
sg5
F0.1
sg6
I3
sg7
I00
sg8
I1
sa(dp13
g4
I7
sg5
F0.9
sg6
I1
sg7
I00
sg8
I9
sa(dp14
g4
I3
sg5
F0.4
sg6
I3
sg7
I00
sg8
I4
sasS'numberOfReads'
p15
I1000
s.