(dp0
S'results'
p1
(lp2
(dp3
S'a'
p4
I5
sS'percentageOfOccurrences'
p5
F99.9
sS'b'
p6
I7
sS'valid'
p7
I00
sS'numOfOccurrences'
p8
I999
sa(dp9
g4
I7
sg5
F0.1
sg6
I7
sg7
I01
sg8
I1
sasS'numberOfReads'
p10
I1000
s.