(dp0
S'results'
p1
(lp2
(dp3
S'a'
p4
I7
sS'percentageOfOccurrences'
p5
F18.4
sS'b'
p6
I7
sS'valid'
p7
I01
sS'numOfOccurrences'
p8
I184
sa(dp9
g4
I5
sg5
F0.9
sg6
I5
sg7
I00
sg8
I9
sa(dp10
g4
I5
sg5
F1.0
sg6
I7
sg7
I00
sg8
I10
sa(dp11
g4
I7
sg5
F1.0
sg6
I5
sg7
I00
sg8
I10
sa(dp12
g4
I7
sg5
F1.5
sg6
I3
sg7
I00
sg8
I15
sa(dp13
g4
I3
sg5
F6.7
sg6
I7
sg7
I00
sg8
I67
sa(dp14
g4
I4
sg5
F0.6
sg6
I7
sg7
I00
sg8
I6
sa(dp15
g4
I3
sg5
F0.1
sg6
I5
sg7
I00
sg8
I1
sa(dp16
g4
I3
sg5
F66.8
sg6
I3
sg7
I00
sg8
I668
sa(dp17
g4
I5
sg5
F1.8
sg6
I1
sg7
I00
sg8
I18
sa(dp18
g4
I7
sg5
F1.1
sg6
I1
sg7
I00
sg8
I11
sa(dp19
g4
I5
sg5
F0.1
sg6
I3
sg7
I00
sg8
I1
sasS'numberOfReads'
p20
I1000
s.